	.text
	.file	"ufs_vendor_mode.c"
	.file	1 "/mnt/disk/jenkins/ci/workspace/chipset_10.x_patch/opensource/component_code/vendor/huawei/extra/build/build_script/kirin_kernel_release/kernel/include/linux/types.h"
	.file	2 "/mnt/disk/jenkins/ci/workspace/chipset_10.x_patch/opensource/component_code/vendor/huawei/extra/build/build_script/kirin_kernel_release/kernel/include/asm-generic/atomic-long.h"
	.file	3 "/mnt/disk/jenkins/ci/workspace/chipset_10.x_patch/opensource/component_code/vendor/huawei/extra/build/build_script/kirin_kernel_release/kernel/include/linux/mutex.h"
	.file	4 "/mnt/disk/jenkins/ci/workspace/chipset_10.x_patch/opensource/component_code/vendor/huawei/extra/build/build_script/kirin_kernel_release/kernel/include/asm-generic/int-ll64.h"
	.file	5 "/mnt/disk/jenkins/ci/workspace/chipset_10.x_patch/opensource/component_code/vendor/huawei/extra/build/build_script/kirin_kernel_release/kernel/arch/arm64/include/asm/spinlock_types.h"
	.file	6 "/mnt/disk/jenkins/ci/workspace/chipset_10.x_patch/opensource/component_code/vendor/huawei/extra/build/build_script/kirin_kernel_release/kernel/include/linux/spinlock_types.h"
	.file	7 "/mnt/disk/jenkins/ci/workspace/chipset_10.x_patch/opensource/component_code/vendor/huawei/extra/build/build_script/kirin_kernel_release/kernel/include/linux/osq_lock.h"
	.file	8 "/mnt/disk/jenkins/ci/workspace/chipset_10.x_patch/opensource/component_code/vendor/huawei/extra/build/build_script/kirin_kernel_release/kernel/arch/arm64/include/asm/thread_info.h"
	.file	9 "/mnt/disk/jenkins/ci/workspace/chipset_10.x_patch/opensource/component_code/vendor/huawei/extra/build/build_script/kirin_kernel_release/kernel/include/linux/sched.h"
	.file	10 "/mnt/disk/jenkins/ci/workspace/chipset_10.x_patch/opensource/component_code/vendor/huawei/extra/build/build_script/kirin_kernel_release/kernel/include/uapi/asm-generic/posix_types.h"
	.file	11 "/mnt/disk/jenkins/ci/workspace/chipset_10.x_patch/opensource/component_code/vendor/huawei/extra/build/build_script/kirin_kernel_release/kernel/include/linux/llist.h"
	.file	12 "/mnt/disk/jenkins/ci/workspace/chipset_10.x_patch/opensource/component_code/vendor/huawei/extra/build/build_script/kirin_kernel_release/kernel/include/linux/rbtree.h"
	.file	13 "/mnt/disk/jenkins/ci/workspace/chipset_10.x_patch/opensource/component_code/vendor/huawei/extra/build/build_script/kirin_kernel_release/kernel/include/linux/cpumask.h"
	.file	14 "/mnt/disk/jenkins/ci/workspace/chipset_10.x_patch/opensource/component_code/vendor/huawei/extra/build/build_script/kirin_kernel_release/kernel/include/linux/timerqueue.h"
	.file	15 "/mnt/disk/jenkins/ci/workspace/chipset_10.x_patch/opensource/component_code/vendor/huawei/extra/build/build_script/kirin_kernel_release/kernel/include/linux/ktime.h"
	.file	16 "/mnt/disk/jenkins/ci/workspace/chipset_10.x_patch/opensource/component_code/vendor/huawei/extra/build/build_script/kirin_kernel_release/kernel/include/linux/hrtimer.h"
	.file	17 "/mnt/disk/jenkins/ci/workspace/chipset_10.x_patch/opensource/component_code/vendor/huawei/extra/build/build_script/kirin_kernel_release/kernel/include/linux/seqlock.h"
	.file	18 "/mnt/disk/jenkins/ci/workspace/chipset_10.x_patch/opensource/component_code/vendor/huawei/extra/build/build_script/kirin_kernel_release/kernel/include/linux/plist.h"
	.file	19 "/mnt/disk/jenkins/ci/workspace/chipset_10.x_patch/opensource/component_code/vendor/huawei/extra/build/build_script/kirin_kernel_release/kernel/include/linux/mm_types.h"
	.file	20 "/mnt/disk/jenkins/ci/workspace/chipset_10.x_patch/opensource/component_code/vendor/huawei/extra/build/build_script/kirin_kernel_release/kernel/arch/arm64/include/asm/pgtable-types.h"
	.file	21 "/mnt/disk/jenkins/ci/workspace/chipset_10.x_patch/opensource/component_code/vendor/huawei/extra/build/build_script/kirin_kernel_release/kernel/include/linux/mm.h"
	.file	22 "/mnt/disk/jenkins/ci/workspace/chipset_10.x_patch/opensource/component_code/vendor/huawei/extra/build/build_script/kirin_kernel_release/kernel/include/asm-generic/pgtable-nop4d-hack.h"
	.file	23 "/mnt/disk/jenkins/ci/workspace/chipset_10.x_patch/opensource/component_code/vendor/huawei/extra/build/build_script/kirin_kernel_release/kernel/include/linux/fs.h"
	.file	24 "/mnt/disk/jenkins/ci/workspace/chipset_10.x_patch/opensource/component_code/vendor/huawei/extra/build/build_script/kirin_kernel_release/kernel/include/linux/uidgid.h"
	.file	25 "/mnt/disk/jenkins/ci/workspace/chipset_10.x_patch/opensource/component_code/vendor/huawei/extra/build/build_script/kirin_kernel_release/kernel/include/linux/dcache.h"
	.file	26 "/mnt/disk/jenkins/ci/workspace/chipset_10.x_patch/opensource/component_code/vendor/huawei/extra/build/build_script/kirin_kernel_release/kernel/include/linux/list_bl.h"
	.file	27 "/mnt/disk/jenkins/ci/workspace/chipset_10.x_patch/opensource/component_code/vendor/huawei/extra/build/build_script/kirin_kernel_release/kernel/include/linux/lockref.h"
	.file	28 "/mnt/disk/jenkins/ci/workspace/chipset_10.x_patch/opensource/component_code/vendor/huawei/extra/build/build_script/kirin_kernel_release/kernel/include/linux/path.h"
	.file	29 "/mnt/disk/jenkins/ci/workspace/chipset_10.x_patch/opensource/component_code/vendor/huawei/extra/build/build_script/kirin_kernel_release/kernel/include/uapi/asm-generic/int-ll64.h"
	.file	30 "/mnt/disk/jenkins/ci/workspace/chipset_10.x_patch/opensource/component_code/vendor/huawei/extra/build/build_script/kirin_kernel_release/kernel/include/linux/module.h"
	.file	31 "/mnt/disk/jenkins/ci/workspace/chipset_10.x_patch/opensource/component_code/vendor/huawei/extra/build/build_script/kirin_kernel_release/kernel/include/linux/kobject.h"
	.file	32 "/mnt/disk/jenkins/ci/workspace/chipset_10.x_patch/opensource/component_code/vendor/huawei/extra/build/build_script/kirin_kernel_release/kernel/include/linux/sysfs.h"
	.file	33 "/mnt/disk/jenkins/ci/workspace/chipset_10.x_patch/opensource/component_code/vendor/huawei/extra/build/build_script/kirin_kernel_release/kernel/include/linux/kobject_ns.h"
	.file	34 "/mnt/disk/jenkins/ci/workspace/chipset_10.x_patch/opensource/component_code/vendor/huawei/extra/build/build_script/kirin_kernel_release/kernel/include/linux/kernfs.h"
	.file	35 "/mnt/disk/jenkins/ci/workspace/chipset_10.x_patch/opensource/component_code/vendor/huawei/extra/build/build_script/kirin_kernel_release/kernel/include/linux/radix-tree.h"
	.file	36 "/mnt/disk/jenkins/ci/workspace/chipset_10.x_patch/opensource/component_code/vendor/huawei/extra/build/build_script/kirin_kernel_release/kernel/include/linux/idr.h"
	.file	37 "/mnt/disk/jenkins/ci/workspace/chipset_10.x_patch/opensource/component_code/vendor/huawei/extra/build/build_script/kirin_kernel_release/kernel/include/linux/seq_file.h"
	.file	38 "/mnt/disk/jenkins/ci/workspace/chipset_10.x_patch/opensource/component_code/vendor/huawei/extra/build/build_script/kirin_kernel_release/kernel/include/linux/wait.h"
	.file	39 "/mnt/disk/jenkins/ci/workspace/chipset_10.x_patch/opensource/component_code/vendor/huawei/extra/build/build_script/kirin_kernel_release/kernel/include/linux/nfs_fs_i.h"
	.file	40 "/mnt/disk/jenkins/ci/workspace/chipset_10.x_patch/opensource/component_code/vendor/huawei/extra/build/build_script/kirin_kernel_release/kernel/include/linux/rwlock_types.h"
	.file	41 "/mnt/disk/jenkins/ci/workspace/chipset_10.x_patch/opensource/component_code/vendor/huawei/extra/build/build_script/kirin_kernel_release/kernel/include/linux/pid.h"
	.file	42 "/mnt/disk/jenkins/ci/workspace/chipset_10.x_patch/opensource/component_code/vendor/huawei/extra/build/build_script/kirin_kernel_release/kernel/include/linux/cred.h"
	.file	43 "/mnt/disk/jenkins/ci/workspace/chipset_10.x_patch/opensource/component_code/vendor/huawei/extra/build/build_script/kirin_kernel_release/kernel/include/linux/capability.h"
	.file	44 "/mnt/disk/jenkins/ci/workspace/chipset_10.x_patch/opensource/component_code/vendor/huawei/extra/build/build_script/kirin_kernel_release/kernel/include/linux/refcount.h"
	.file	45 "/mnt/disk/jenkins/ci/workspace/chipset_10.x_patch/opensource/component_code/vendor/huawei/extra/build/build_script/kirin_kernel_release/kernel/include/linux/key.h"
	.file	46 "/mnt/disk/jenkins/ci/workspace/chipset_10.x_patch/opensource/component_code/vendor/huawei/extra/build/build_script/kirin_kernel_release/kernel/include/linux/rwsem.h"
	.file	47 "/mnt/disk/jenkins/ci/workspace/chipset_10.x_patch/opensource/component_code/vendor/huawei/extra/build/build_script/kirin_kernel_release/kernel/include/linux/assoc_array.h"
	.file	48 "/mnt/disk/jenkins/ci/workspace/chipset_10.x_patch/opensource/component_code/vendor/huawei/extra/build/build_script/kirin_kernel_release/kernel/include/linux/sched/user.h"
	.file	49 "/mnt/disk/jenkins/ci/workspace/chipset_10.x_patch/opensource/component_code/vendor/huawei/extra/build/build_script/kirin_kernel_release/kernel/include/linux/errseq.h"
	.file	50 "/mnt/disk/jenkins/ci/workspace/chipset_10.x_patch/opensource/component_code/vendor/huawei/extra/build/build_script/kirin_kernel_release/kernel/include/linux/kref.h"
	.file	51 "/mnt/disk/jenkins/ci/workspace/chipset_10.x_patch/opensource/component_code/vendor/huawei/extra/build/build_script/kirin_kernel_release/kernel/include/linux/completion.h"
	.file	52 "/mnt/disk/jenkins/ci/workspace/chipset_10.x_patch/opensource/component_code/vendor/huawei/extra/build/build_script/kirin_kernel_release/kernel/include/linux/export.h"
	.file	53 "/mnt/disk/jenkins/ci/workspace/chipset_10.x_patch/opensource/component_code/vendor/huawei/extra/build/build_script/kirin_kernel_release/kernel/include/linux/cfi.h"
	.file	54 "/mnt/disk/jenkins/ci/workspace/chipset_10.x_patch/opensource/component_code/vendor/huawei/extra/build/build_script/kirin_kernel_release/kernel/include/linux/moduleparam.h"
	.file	55 "/mnt/disk/jenkins/ci/workspace/chipset_10.x_patch/opensource/component_code/vendor/huawei/extra/build/build_script/kirin_kernel_release/kernel/arch/arm64/include/asm/extable.h"
	.file	56 "/mnt/disk/jenkins/ci/workspace/chipset_10.x_patch/opensource/component_code/vendor/huawei/extra/build/build_script/kirin_kernel_release/kernel/include/linux/rbtree_latch.h"
	.file	57 "/mnt/disk/jenkins/ci/workspace/chipset_10.x_patch/opensource/component_code/vendor/huawei/extra/build/build_script/kirin_kernel_release/kernel/include/uapi/linux/elf.h"
	.file	58 "/mnt/disk/jenkins/ci/workspace/chipset_10.x_patch/opensource/component_code/vendor/huawei/extra/build/build_script/kirin_kernel_release/kernel/arch/arm64/include/asm/module.h"
	.file	59 "/mnt/disk/jenkins/ci/workspace/chipset_10.x_patch/opensource/component_code/vendor/huawei/extra/build/build_script/kirin_kernel_release/kernel/include/uapi/linux/types.h"
	.file	60 "/mnt/disk/jenkins/ci/workspace/chipset_10.x_patch/opensource/component_code/vendor/huawei/extra/build/build_script/kirin_kernel_release/kernel/include/asm-generic/bug.h"
	.file	61 "/mnt/disk/jenkins/ci/workspace/chipset_10.x_patch/opensource/component_code/vendor/huawei/extra/build/build_script/kirin_kernel_release/kernel/include/linux/tracepoint-defs.h"
	.file	62 "/mnt/disk/jenkins/ci/workspace/chipset_10.x_patch/opensource/component_code/vendor/huawei/extra/build/build_script/kirin_kernel_release/kernel/include/linux/jump_label.h"
	.file	63 "/mnt/disk/jenkins/ci/workspace/chipset_10.x_patch/opensource/component_code/vendor/huawei/extra/build/build_script/kirin_kernel_release/kernel/include/linux/lockdep.h"
	.file	64 "/mnt/disk/jenkins/ci/workspace/chipset_10.x_patch/opensource/component_code/vendor/huawei/extra/build/build_script/kirin_kernel_release/kernel/include/linux/quota.h"
	.file	65 "/mnt/disk/jenkins/ci/workspace/chipset_10.x_patch/opensource/component_code/vendor/huawei/extra/build/build_script/kirin_kernel_release/kernel/include/linux/projid.h"
	.file	66 "/mnt/disk/jenkins/ci/workspace/chipset_10.x_patch/opensource/component_code/vendor/huawei/extra/build/build_script/kirin_kernel_release/kernel/include/linux/time64.h"
	.file	67 "/mnt/disk/jenkins/ci/workspace/chipset_10.x_patch/opensource/component_code/vendor/huawei/extra/build/build_script/kirin_kernel_release/kernel/include/linux/shrinker.h"
	.file	68 "/mnt/disk/jenkins/ci/workspace/chipset_10.x_patch/opensource/component_code/vendor/huawei/extra/build/build_script/kirin_kernel_release/kernel/include/linux/genhd.h"
	.file	69 "/mnt/disk/jenkins/ci/workspace/chipset_10.x_patch/opensource/component_code/vendor/huawei/extra/build/build_script/kirin_kernel_release/kernel/include/linux/device.h"
	.file	70 "/mnt/disk/jenkins/ci/workspace/chipset_10.x_patch/opensource/component_code/vendor/huawei/extra/build/build_script/kirin_kernel_release/kernel/include/linux/pm.h"
	.file	71 "/mnt/disk/jenkins/ci/workspace/chipset_10.x_patch/opensource/component_code/vendor/huawei/extra/build/build_script/kirin_kernel_release/kernel/include/linux/pm_wakeup.h"
	.file	72 "/mnt/disk/jenkins/ci/workspace/chipset_10.x_patch/opensource/component_code/vendor/huawei/extra/build/build_script/kirin_kernel_release/kernel/include/linux/timer.h"
	.file	73 "/mnt/disk/jenkins/ci/workspace/chipset_10.x_patch/opensource/component_code/vendor/huawei/extra/build/build_script/kirin_kernel_release/kernel/include/linux/workqueue.h"
	.file	74 "/mnt/disk/jenkins/ci/workspace/chipset_10.x_patch/opensource/component_code/vendor/huawei/extra/build/build_script/kirin_kernel_release/kernel/include/linux/pinctrl/devinfo.h"
	.file	75 "/mnt/disk/jenkins/ci/workspace/chipset_10.x_patch/opensource/component_code/vendor/huawei/extra/build/build_script/kirin_kernel_release/kernel/include/linux/dma-mapping.h"
	.file	76 "/mnt/disk/jenkins/ci/workspace/chipset_10.x_patch/opensource/component_code/vendor/huawei/extra/build/build_script/kirin_kernel_release/kernel/include/linux/scatterlist.h"
	.file	77 "/mnt/disk/jenkins/ci/workspace/chipset_10.x_patch/opensource/component_code/vendor/huawei/extra/build/build_script/kirin_kernel_release/kernel/include/linux/dma-direction.h"
	.file	78 "/mnt/disk/jenkins/ci/workspace/chipset_10.x_patch/opensource/component_code/vendor/huawei/extra/build/build_script/kirin_kernel_release/kernel/arch/arm64/include/asm/device.h"
	.file	79 "/mnt/disk/jenkins/ci/workspace/chipset_10.x_patch/opensource/component_code/vendor/huawei/extra/build/build_script/kirin_kernel_release/kernel/include/linux/klist.h"
	.file	80 "/mnt/disk/jenkins/ci/workspace/chipset_10.x_patch/opensource/component_code/vendor/huawei/extra/build/build_script/kirin_kernel_release/kernel/include/linux/percpu-refcount.h"
	.file	81 "/mnt/disk/jenkins/ci/workspace/chipset_10.x_patch/opensource/component_code/vendor/huawei/extra/build/build_script/kirin_kernel_release/kernel/include/linux/blkdev.h"
	.file	82 "/mnt/disk/jenkins/ci/workspace/chipset_10.x_patch/opensource/component_code/vendor/huawei/extra/build/build_script/kirin_kernel_release/kernel/include/linux/smp.h"
	.file	83 "/mnt/disk/jenkins/ci/workspace/chipset_10.x_patch/opensource/component_code/vendor/huawei/extra/build/build_script/kirin_kernel_release/kernel/include/linux/blk_types.h"
	.file	84 "/mnt/disk/jenkins/ci/workspace/chipset_10.x_patch/opensource/component_code/vendor/huawei/extra/build/build_script/kirin_kernel_release/kernel/include/linux/bvec.h"
	.file	85 "/mnt/disk/jenkins/ci/workspace/chipset_10.x_patch/opensource/component_code/vendor/huawei/extra/build/build_script/kirin_kernel_release/kernel/include/uapi/linux/time.h"
	.file	86 "/mnt/disk/jenkins/ci/workspace/chipset_10.x_patch/opensource/component_code/vendor/huawei/extra/build/build_script/kirin_kernel_release/kernel/include/linux/iocontext.h"
	.file	87 "/mnt/disk/jenkins/ci/workspace/chipset_10.x_patch/opensource/component_code/vendor/huawei/extra/build/build_script/kirin_kernel_release/kernel/include/linux/bio.h"
	.file	88 "/mnt/disk/jenkins/ci/workspace/chipset_10.x_patch/opensource/component_code/vendor/huawei/extra/build/build_script/kirin_kernel_release/kernel/include/linux/mempool.h"
	.file	89 "/mnt/disk/jenkins/ci/workspace/chipset_10.x_patch/opensource/component_code/vendor/huawei/extra/build/build_script/kirin_kernel_release/kernel/include/linux/elevator.h"
	.file	90 "/mnt/disk/jenkins/ci/workspace/chipset_10.x_patch/opensource/component_code/vendor/huawei/extra/build/build_script/kirin_kernel_release/kernel/include/linux/blk-mq.h"
	.file	91 "/mnt/disk/jenkins/ci/workspace/chipset_10.x_patch/opensource/component_code/vendor/huawei/extra/build/build_script/kirin_kernel_release/kernel/include/linux/sbitmap.h"
	.file	92 "/mnt/disk/jenkins/ci/workspace/chipset_10.x_patch/opensource/component_code/vendor/huawei/extra/build/build_script/kirin_kernel_release/kernel/include/linux/srcutree.h"
	.file	93 "/mnt/disk/jenkins/ci/workspace/chipset_10.x_patch/opensource/component_code/vendor/huawei/extra/build/build_script/kirin_kernel_release/kernel/include/linux/rcu_segcblist.h"
	.file	94 "/mnt/disk/jenkins/ci/workspace/chipset_10.x_patch/opensource/component_code/vendor/huawei/extra/build/build_script/kirin_kernel_release/kernel/include/linux/notifier.h"
	.file	95 "/mnt/disk/jenkins/ci/workspace/chipset_10.x_patch/opensource/component_code/vendor/huawei/extra/build/build_script/kirin_kernel_release/kernel/include/linux/backing-dev-defs.h"
	.file	96 "/mnt/disk/jenkins/ci/workspace/chipset_10.x_patch/opensource/component_code/vendor/huawei/extra/build/build_script/kirin_kernel_release/kernel/include/linux/percpu_counter.h"
	.file	97 "/mnt/disk/jenkins/ci/workspace/chipset_10.x_patch/opensource/component_code/vendor/huawei/extra/build/build_script/kirin_kernel_release/kernel/include/linux/flex_proportions.h"
	.file	98 "/mnt/disk/jenkins/ci/workspace/chipset_10.x_patch/opensource/component_code/vendor/huawei/extra/build/build_script/kirin_kernel_release/kernel/include/linux/bsg.h"
	.file	99 "/mnt/disk/jenkins/ci/workspace/chipset_10.x_patch/opensource/component_code/vendor/huawei/extra/build/build_script/kirin_kernel_release/kernel/include/linux/rcu_sync.h"
	.file	100 "/mnt/disk/jenkins/ci/workspace/chipset_10.x_patch/opensource/component_code/vendor/huawei/extra/build/build_script/kirin_kernel_release/kernel/include/linux/percpu-rwsem.h"
	.file	101 "/mnt/disk/jenkins/ci/workspace/chipset_10.x_patch/opensource/component_code/vendor/huawei/extra/build/build_script/kirin_kernel_release/kernel/include/linux/rcuwait.h"
	.file	102 "/mnt/disk/jenkins/ci/workspace/chipset_10.x_patch/opensource/component_code/vendor/huawei/extra/build/build_script/kirin_kernel_release/kernel/include/linux/uuid.h"
	.file	103 "/mnt/disk/jenkins/ci/workspace/chipset_10.x_patch/opensource/component_code/vendor/huawei/extra/build/build_script/kirin_kernel_release/kernel/include/linux/list_lru.h"
	.file	104 "/mnt/disk/jenkins/ci/workspace/chipset_10.x_patch/opensource/component_code/vendor/huawei/extra/build/build_script/kirin_kernel_release/kernel/include/linux/delayed_call.h"
	.file	105 "/mnt/disk/jenkins/ci/workspace/chipset_10.x_patch/opensource/component_code/vendor/huawei/extra/build/build_script/kirin_kernel_release/kernel/include/linux/stat.h"
	.file	106 "/mnt/disk/jenkins/ci/workspace/chipset_10.x_patch/opensource/component_code/vendor/huawei/extra/build/build_script/kirin_kernel_release/kernel/include/uapi/linux/fiemap.h"
	.file	107 "/mnt/disk/jenkins/ci/workspace/chipset_10.x_patch/opensource/component_code/vendor/huawei/extra/build/build_script/kirin_kernel_release/kernel/include/linux/migrate_mode.h"
	.file	108 "/mnt/disk/jenkins/ci/workspace/chipset_10.x_patch/opensource/component_code/vendor/huawei/extra/build/build_script/kirin_kernel_release/kernel/include/linux/mmzone.h"
	.file	109 "/mnt/disk/jenkins/ci/workspace/chipset_10.x_patch/opensource/component_code/vendor/huawei/extra/build/build_script/kirin_kernel_release/kernel/include/linux/memremap.h"
	.file	110 "/mnt/disk/jenkins/ci/workspace/chipset_10.x_patch/opensource/component_code/vendor/huawei/extra/build/build_script/kirin_kernel_release/kernel/include/linux/ioport.h"
	.file	111 "/mnt/disk/jenkins/ci/workspace/chipset_10.x_patch/opensource/component_code/vendor/huawei/extra/build/build_script/kirin_kernel_release/kernel/arch/arm64/include/asm/page.h"
	.file	112 "/mnt/disk/jenkins/ci/workspace/chipset_10.x_patch/opensource/component_code/vendor/huawei/extra/build/build_script/kirin_kernel_release/kernel/include/linux/mm_types_task.h"
	.file	113 "/mnt/disk/jenkins/ci/workspace/chipset_10.x_patch/opensource/component_code/vendor/huawei/extra/build/build_script/kirin_kernel_release/kernel/arch/arm64/include/asm/mmu.h"
	.file	114 "/mnt/disk/jenkins/ci/workspace/chipset_10.x_patch/opensource/component_code/vendor/huawei/extra/build/build_script/kirin_kernel_release/kernel/include/linux/uprobes.h"
	.file	115 "/mnt/disk/jenkins/ci/workspace/chipset_10.x_patch/opensource/component_code/vendor/huawei/extra/build/build_script/kirin_kernel_release/kernel/include/linux/restart_block.h"
	.file	116 "/mnt/disk/jenkins/ci/workspace/chipset_10.x_patch/opensource/component_code/vendor/huawei/extra/build/build_script/kirin_kernel_release/kernel/arch/arm64/include/asm/compat.h"
	.file	117 "/mnt/disk/jenkins/ci/workspace/chipset_10.x_patch/opensource/component_code/vendor/huawei/extra/build/build_script/kirin_kernel_release/kernel/include/uapi/asm-generic/signal.h"
	.file	118 "/mnt/disk/jenkins/ci/workspace/chipset_10.x_patch/opensource/component_code/vendor/huawei/extra/build/build_script/kirin_kernel_release/kernel/include/linux/signal_types.h"
	.file	119 "/mnt/disk/jenkins/ci/workspace/chipset_10.x_patch/opensource/component_code/vendor/huawei/extra/build/build_script/kirin_kernel_release/kernel/include/linux/seccomp.h"
	.file	120 "/mnt/disk/jenkins/ci/workspace/chipset_10.x_patch/opensource/component_code/vendor/huawei/extra/build/build_script/kirin_kernel_release/kernel/include/uapi/asm-generic/siginfo.h"
	.file	121 "/mnt/disk/jenkins/ci/workspace/chipset_10.x_patch/opensource/component_code/vendor/huawei/extra/build/build_script/kirin_kernel_release/kernel/include/linux/task_io_accounting.h"
	.file	122 "/mnt/disk/jenkins/ci/workspace/chipset_10.x_patch/opensource/component_code/vendor/huawei/extra/build/build_script/kirin_kernel_release/kernel/include/linux/nodemask.h"
	.file	123 "/mnt/disk/jenkins/ci/workspace/chipset_10.x_patch/opensource/component_code/vendor/huawei/extra/build/build_script/kirin_kernel_release/kernel/arch/arm64/include/asm/processor.h"
	.file	124 "/mnt/disk/jenkins/ci/workspace/chipset_10.x_patch/opensource/component_code/vendor/huawei/extra/build/build_script/kirin_kernel_release/kernel/drivers/scsi/ufs/ufs_vendor_mode.c"
	.file	125 "/mnt/disk/jenkins/ci/workspace/chipset_10.x_patch/opensource/component_code/vendor/huawei/extra/build/build_script/kirin_kernel_release/kernel/arch/arm64/include/uapi/asm/ptrace.h"
	.file	126 "/mnt/disk/jenkins/ci/workspace/chipset_10.x_patch/opensource/component_code/vendor/huawei/extra/build/build_script/kirin_kernel_release/kernel/arch/arm64/include/asm/fpsimd.h"
	.file	127 "/mnt/disk/jenkins/ci/workspace/chipset_10.x_patch/opensource/component_code/vendor/huawei/extra/build/build_script/kirin_kernel_release/kernel/include/scsi/scsi_device.h"
	.file	128 "/mnt/disk/jenkins/ci/workspace/chipset_10.x_patch/opensource/component_code/vendor/huawei/extra/build/build_script/kirin_kernel_release/kernel/include/scsi/scsi_host.h"
	.file	129 "/mnt/disk/jenkins/ci/workspace/chipset_10.x_patch/opensource/component_code/vendor/huawei/extra/build/build_script/kirin_kernel_release/kernel/drivers/scsi/ufs/ufs.h"
	.file	130 "/mnt/disk/jenkins/ci/workspace/chipset_10.x_patch/opensource/component_code/vendor/huawei/extra/build/build_script/kirin_kernel_release/kernel/drivers/scsi/ufs/ufshcd.h"
	.file	131 "/mnt/disk/jenkins/ci/workspace/chipset_10.x_patch/opensource/component_code/vendor/huawei/extra/build/build_script/kirin_kernel_release/kernel/drivers/scsi/ufs/ufshci.h"
	.file	132 "/mnt/disk/jenkins/ci/workspace/chipset_10.x_patch/opensource/component_code/vendor/huawei/extra/build/build_script/kirin_kernel_release/kernel/include/linux/hisi-bkops-core.h"
	.file	133 "/mnt/disk/jenkins/ci/workspace/chipset_10.x_patch/opensource/component_code/vendor/huawei/extra/build/build_script/kirin_kernel_release/kernel/include/linux/stddef.h"
	.section	.text.ufs_ioctl_vendor_package,"ax",@progbits
	.hidden	ufs_ioctl_vendor_package // -- Begin function ufs_ioctl_vendor_package
	.globl	ufs_ioctl_vendor_package
	.p2align	2
	.type	ufs_ioctl_vendor_package,@function
ufs_ioctl_vendor_package:               // @ufs_ioctl_vendor_package
.Lfunc_begin0:
	.loc	124 15 0                // /mnt/disk/jenkins/ci/workspace/chipset_10.x_patch/opensource/component_code/vendor/huawei/extra/build/build_script/kirin_kernel_release/kernel/drivers/scsi/ufs/ufs_vendor_mode.c:15:0
	.cfi_sections .debug_frame
	.cfi_startproc
// %bb.0:
	sub	sp, sp, #96             // =96
	str	x25, [sp, #16]          // 8-byte Folded Spill
	stp	x24, x23, [sp, #32]     // 16-byte Folded Spill
	stp	x22, x21, [sp, #48]     // 16-byte Folded Spill
	stp	x20, x19, [sp, #64]     // 16-byte Folded Spill
	stp	x29, x30, [sp, #80]     // 16-byte Folded Spill
	add	x29, sp, #80            // =80
	.cfi_def_cfa w29, 16
	.cfi_offset w30, -8
	.cfi_offset w29, -16
	.cfi_offset w19, -24
	.cfi_offset w20, -32
	.cfi_offset w21, -40
	.cfi_offset w22, -48
	.cfi_offset w23, -56
	.cfi_offset w24, -64
	.cfi_offset w25, -80
	//DEBUG_VALUE: ufs_ioctl_vendor_package:hba <- $x0
	//DEBUG_VALUE: ufs_ioctl_vendor_package:ufs_vendor_ioctl_state_p <- $x1
	//DEBUG_VALUE: ufs_ioctl_vendor_package:buffer <- $x2
.Ltmp0:
	//DEBUG_VALUE: copy_from_user:from <- $x2
	//DEBUG_VALUE: _copy_from_user:from <- $x2
	//DEBUG_VALUE: __uaccess_mask_ptr:ptr <- $x2
	adrp	x8, __stack_chk_guard
	ldr	x8, [x8, :lo12:__stack_chk_guard]
	mov	x20, x0
	str	x8, [sp, #8]
.Ltmp1:
	//DEBUG_VALUE: ufs_ioctl_vendor_package:err <- 0
	//DEBUG_VALUE: ufs_ioctl_vendor_package:hba <- $x20
	.loc	124 19 6 prologue_end   // /mnt/disk/jenkins/ci/workspace/chipset_10.x_patch/opensource/component_code/vendor/huawei/extra/build/build_script/kirin_kernel_release/kernel/drivers/scsi/ufs/ufs_vendor_mode.c:19:6
	cbz	x2, .LBB0_3
.Ltmp2:
// %bb.1:
	//DEBUG_VALUE: ufs_ioctl_vendor_package:hba <- $x20
	//DEBUG_VALUE: __uaccess_mask_ptr:ptr <- $x2
	//DEBUG_VALUE: _copy_from_user:from <- $x2
	//DEBUG_VALUE: copy_from_user:from <- $x2
	//DEBUG_VALUE: ufs_ioctl_vendor_package:buffer <- $x2
	//DEBUG_VALUE: ufs_ioctl_vendor_package:ufs_vendor_ioctl_state_p <- $x1
	.loc	124 24 2                // /mnt/disk/jenkins/ci/workspace/chipset_10.x_patch/opensource/component_code/vendor/huawei/extra/build/build_script/kirin_kernel_release/kernel/drivers/scsi/ufs/ufs_vendor_mode.c:24:2
	adrp	x0, s_health_info_lock
	add	x0, x0, :lo12:s_health_info_lock
	mov	x21, x2
.Ltmp3:
	//DEBUG_VALUE: ufs_ioctl_vendor_package:buffer <- $x21
	//DEBUG_VALUE: copy_from_user:from <- $x21
	//DEBUG_VALUE: _copy_from_user:from <- $x21
	//DEBUG_VALUE: __uaccess_mask_ptr:ptr <- $x21
	.loc	124 0 2 is_stmt 0       // /mnt/disk/jenkins/ci/workspace/chipset_10.x_patch/opensource/component_code/vendor/huawei/extra/build/build_script/kirin_kernel_release/kernel/drivers/scsi/ufs/ufs_vendor_mode.c:0:2
	mov	x19, x1
.Ltmp4:
	//DEBUG_VALUE: ufs_ioctl_vendor_package:ufs_vendor_ioctl_state_p <- $x19
	.loc	124 24 2                // /mnt/disk/jenkins/ci/workspace/chipset_10.x_patch/opensource/component_code/vendor/huawei/extra/build/build_script/kirin_kernel_release/kernel/drivers/scsi/ufs/ufs_vendor_mode.c:24:2
	bl	mutex_lock
	.loc	124 26 2 is_stmt 1      // /mnt/disk/jenkins/ci/workspace/chipset_10.x_patch/opensource/component_code/vendor/huawei/extra/build/build_script/kirin_kernel_release/kernel/drivers/scsi/ufs/ufs_vendor_mode.c:26:2
	ldr	x0, [x20, #88]
	adrp	x1, .L.str.1
	adrp	x2, .L__func__.ufs_ioctl_vendor_package
	add	x1, x1, :lo12:.L.str.1
	add	x2, x2, :lo12:.L__func__.ufs_ioctl_vendor_package
	bl	_dev_info
.Ltmp5:
	.loc	124 28 32               // /mnt/disk/jenkins/ci/workspace/chipset_10.x_patch/opensource/component_code/vendor/huawei/extra/build/build_script/kirin_kernel_release/kernel/drivers/scsi/ufs/ufs_vendor_mode.c:28:32
	ldr	w3, [x19, #8]
.Ltmp6:
	.loc	124 28 6 is_stmt 0      // /mnt/disk/jenkins/ci/workspace/chipset_10.x_patch/opensource/component_code/vendor/huawei/extra/build/build_script/kirin_kernel_release/kernel/drivers/scsi/ufs/ufs_vendor_mode.c:28:6
	cmp	w3, #10                 // =10
	b.lt	.LBB0_4
.Ltmp7:
// %bb.2:
	//DEBUG_VALUE: ufs_ioctl_vendor_package:ufs_vendor_ioctl_state_p <- $x19
	//DEBUG_VALUE: ufs_ioctl_vendor_package:buffer <- $x21
	//DEBUG_VALUE: ufs_ioctl_vendor_package:hba <- $x20
	.loc	124 30 16 is_stmt 1     // /mnt/disk/jenkins/ci/workspace/chipset_10.x_patch/opensource/component_code/vendor/huawei/extra/build/build_script/kirin_kernel_release/kernel/drivers/scsi/ufs/ufs_vendor_mode.c:30:16
	ldr	x0, [x20, #88]
	.loc	124 30 3 is_stmt 0      // /mnt/disk/jenkins/ci/workspace/chipset_10.x_patch/opensource/component_code/vendor/huawei/extra/build/build_script/kirin_kernel_release/kernel/drivers/scsi/ufs/ufs_vendor_mode.c:30:3
	adrp	x1, .L.str.2
	adrp	x2, .L__func__.ufs_ioctl_vendor_package
	add	x1, x1, :lo12:.L.str.2
	add	x2, x2, :lo12:.L__func__.ufs_ioctl_vendor_package
                                        // kill: def $w3 killed $w3 killed $x3
	bl	dev_err
	mov	w22, #-22
.Ltmp8:
	//DEBUG_VALUE: ufs_ioctl_vendor_package:err <- -22
	.loc	124 0 3                 // /mnt/disk/jenkins/ci/workspace/chipset_10.x_patch/opensource/component_code/vendor/huawei/extra/build/build_script/kirin_kernel_release/kernel/drivers/scsi/ufs/ufs_vendor_mode.c:0:3
	b	.LBB0_17
.Ltmp9:
.LBB0_3:
	//DEBUG_VALUE: ufs_ioctl_vendor_package:hba <- $x20
	//DEBUG_VALUE: ufs_ioctl_vendor_package:buffer <- $x2
	//DEBUG_VALUE: ufs_ioctl_vendor_package:ufs_vendor_ioctl_state_p <- $x1
	.loc	124 20 16 is_stmt 1     // /mnt/disk/jenkins/ci/workspace/chipset_10.x_patch/opensource/component_code/vendor/huawei/extra/build/build_script/kirin_kernel_release/kernel/drivers/scsi/ufs/ufs_vendor_mode.c:20:16
	ldr	x0, [x20, #88]
	.loc	124 20 3 is_stmt 0      // /mnt/disk/jenkins/ci/workspace/chipset_10.x_patch/opensource/component_code/vendor/huawei/extra/build/build_script/kirin_kernel_release/kernel/drivers/scsi/ufs/ufs_vendor_mode.c:20:3
	adrp	x1, .L.str
.Ltmp10:
	adrp	x2, .L__func__.ufs_ioctl_vendor_package
.Ltmp11:
	add	x1, x1, :lo12:.L.str
	add	x2, x2, :lo12:.L__func__.ufs_ioctl_vendor_package
	bl	dev_err
	mov	w22, #-22
	b	.LBB0_18
.Ltmp12:
.LBB0_4:
	//DEBUG_VALUE: ufs_ioctl_vendor_package:ufs_vendor_ioctl_state_p <- $x19
	//DEBUG_VALUE: ufs_ioctl_vendor_package:buffer <- $x21
	//DEBUG_VALUE: ufs_ioctl_vendor_package:hba <- $x20
	.loc	124 36 33 is_stmt 1     // /mnt/disk/jenkins/ci/workspace/chipset_10.x_patch/opensource/component_code/vendor/huawei/extra/build/build_script/kirin_kernel_release/kernel/drivers/scsi/ufs/ufs_vendor_mode.c:36:33
	ldr	x23, [x19]
.Ltmp13:
	.loc	124 36 6 is_stmt 0      // /mnt/disk/jenkins/ci/workspace/chipset_10.x_patch/opensource/component_code/vendor/huawei/extra/build/build_script/kirin_kernel_release/kernel/drivers/scsi/ufs/ufs_vendor_mode.c:36:6
	cbnz	x23, .LBB0_7
.Ltmp14:
// %bb.5:
	//DEBUG_VALUE: ufs_ioctl_vendor_package:ufs_vendor_ioctl_state_p <- $x19
	//DEBUG_VALUE: ufs_ioctl_vendor_package:buffer <- $x21
	//DEBUG_VALUE: ufs_ioctl_vendor_package:hba <- $x20
	//DEBUG_VALUE: kzalloc:size <- 320
	//DEBUG_VALUE: kzalloc:flags <- 20971712
	//DEBUG_VALUE: kmalloc:size <- 320
	//DEBUG_VALUE: kmalloc:flags <- 21004480
	.file	134 "/mnt/disk/jenkins/ci/workspace/chipset_10.x_patch/opensource/component_code/vendor/huawei/extra/build/build_script/kirin_kernel_release/kernel/include/linux/slab.h"
	.loc	134 520 9 is_stmt 1     // /mnt/disk/jenkins/ci/workspace/chipset_10.x_patch/opensource/component_code/vendor/huawei/extra/build/build_script/kirin_kernel_release/kernel/include/linux/slab.h:520:9
	mov	w1, #32960
	mov	w0, #320
	movk	w1, #320, lsl #16
	bl	__kmalloc
.Ltmp15:
	.loc	124 37 40               // /mnt/disk/jenkins/ci/workspace/chipset_10.x_patch/opensource/component_code/vendor/huawei/extra/build/build_script/kirin_kernel_release/kernel/drivers/scsi/ufs/ufs_vendor_mode.c:37:40
	str	x0, [x19]
	.loc	124 41 7                // /mnt/disk/jenkins/ci/workspace/chipset_10.x_patch/opensource/component_code/vendor/huawei/extra/build/build_script/kirin_kernel_release/kernel/drivers/scsi/ufs/ufs_vendor_mode.c:41:7
	cbz	x0, .LBB0_15
.Ltmp16:
// %bb.6:
	//DEBUG_VALUE: ufs_ioctl_vendor_package:ufs_vendor_ioctl_state_p <- $x19
	//DEBUG_VALUE: ufs_ioctl_vendor_package:buffer <- $x21
	//DEBUG_VALUE: ufs_ioctl_vendor_package:hba <- $x20
	.loc	124 0 0 is_stmt 0       // /mnt/disk/jenkins/ci/workspace/chipset_10.x_patch/opensource/component_code/vendor/huawei/extra/build/build_script/kirin_kernel_release/kernel/drivers/scsi/ufs/ufs_vendor_mode.c:0:0
	mov	x23, x0
	.loc	124 51 31 is_stmt 1     // /mnt/disk/jenkins/ci/workspace/chipset_10.x_patch/opensource/component_code/vendor/huawei/extra/build/build_script/kirin_kernel_release/kernel/drivers/scsi/ufs/ufs_vendor_mode.c:51:31
	mov	w3, wzr
.Ltmp17:
	.loc	124 47 39               // /mnt/disk/jenkins/ci/workspace/chipset_10.x_patch/opensource/component_code/vendor/huawei/extra/build/build_script/kirin_kernel_release/kernel/drivers/scsi/ufs/ufs_vendor_mode.c:47:39
	str	wzr, [x19, #8]
.Ltmp18:
.LBB0_7:
	//DEBUG_VALUE: ufs_ioctl_vendor_package:ufs_vendor_ioctl_state_p <- $x19
	//DEBUG_VALUE: ufs_ioctl_vendor_package:buffer <- $x21
	//DEBUG_VALUE: ufs_ioctl_vendor_package:hba <- $x20
	.loc	124 50 25               // /mnt/disk/jenkins/ci/workspace/chipset_10.x_patch/opensource/component_code/vendor/huawei/extra/build/build_script/kirin_kernel_release/kernel/drivers/scsi/ufs/ufs_vendor_mode.c:50:25
	sxtw	x25, w3
	.loc	124 50 23 is_stmt 0     // /mnt/disk/jenkins/ci/workspace/chipset_10.x_patch/opensource/component_code/vendor/huawei/extra/build/build_script/kirin_kernel_release/kernel/drivers/scsi/ufs/ufs_vendor_mode.c:50:23
	add	x22, x23, x25, lsl #5
.Ltmp19:
	//DEBUG_VALUE: check_object_size:to_user <- 0
	//DEBUG_VALUE: check_object_size:n <- 16
	//DEBUG_VALUE: check_copy_size:sz <- -1
	//DEBUG_VALUE: check_copy_size:is_source <- 0
	//DEBUG_VALUE: check_copy_size:bytes <- 16
	//DEBUG_VALUE: copy_from_user:n <- 16
	//DEBUG_VALUE: check_object_size:ptr <- $x22
	//DEBUG_VALUE: check_copy_size:addr <- $x22
	//DEBUG_VALUE: copy_from_user:to <- $x22
	.file	135 "/mnt/disk/jenkins/ci/workspace/chipset_10.x_patch/opensource/component_code/vendor/huawei/extra/build/build_script/kirin_kernel_release/kernel/include/linux/thread_info.h"
	.loc	135 108 3 is_stmt 1     // /mnt/disk/jenkins/ci/workspace/chipset_10.x_patch/opensource/component_code/vendor/huawei/extra/build/build_script/kirin_kernel_release/kernel/include/linux/thread_info.h:108:3
	orr	w1, wzr, #0x10
	mov	x0, x22
	mov	w2, wzr
	bl	__check_object_size
.Ltmp20:
	//DEBUG_VALUE: __range_ok:size <- 16
	//DEBUG_VALUE: __range_ok:addr <- $x21
	//DEBUG_VALUE: _copy_from_user:res <- 16
	//DEBUG_VALUE: _copy_from_user:n <- 16
	//DEBUG_VALUE: _copy_from_user:to <- $x22
	.file	136 "/mnt/disk/jenkins/ci/workspace/chipset_10.x_patch/opensource/component_code/vendor/huawei/extra/build/build_script/kirin_kernel_release/kernel/arch/arm64/include/asm/current.h"
	.loc	136 19 2                // /mnt/disk/jenkins/ci/workspace/chipset_10.x_patch/opensource/component_code/vendor/huawei/extra/build/build_script/kirin_kernel_release/kernel/arch/arm64/include/asm/current.h:19:2
	//APP
	mrs x24, sp_el0
	//NO_APP
.Ltmp21:
	//DEBUG_VALUE: get_current:sp_el0 <- $x24
	//DEBUG_VALUE: get_current:sp_el0 <- $x24
	//DEBUG_VALUE: get_current:sp_el0 <- $x24
	//DEBUG_VALUE: get_current:sp_el0 <- $x24
	.file	137 "/mnt/disk/jenkins/ci/workspace/chipset_10.x_patch/opensource/component_code/vendor/huawei/extra/build/build_script/kirin_kernel_release/kernel/arch/arm64/include/asm/uaccess.h"
	.loc	137 84 24               // /mnt/disk/jenkins/ci/workspace/chipset_10.x_patch/opensource/component_code/vendor/huawei/extra/build/build_script/kirin_kernel_release/kernel/arch/arm64/include/asm/uaccess.h:84:24
	ldr	x8, [x24, #8]
.Ltmp22:
	//DEBUG_VALUE: __range_ok:limit <- $x8
	.loc	137 87 2                // /mnt/disk/jenkins/ci/workspace/chipset_10.x_patch/opensource/component_code/vendor/huawei/extra/build/build_script/kirin_kernel_release/kernel/arch/arm64/include/asm/uaccess.h:87:2
	mov	x9, x21
	//APP
		adds	x9, x9, #16
	csel	x8, xzr, x8, hi
	csinv	x9, x9, xzr, cc
	sbcs	xzr, x9, x8
	cset	x9, ls

	//NO_APP
.Ltmp23:
	//DEBUG_VALUE: __range_ok:addr <- $x9
	.file	138 "/mnt/disk/jenkins/ci/workspace/chipset_10.x_patch/opensource/component_code/vendor/huawei/extra/build/build_script/kirin_kernel_release/kernel/include/linux/uaccess.h"
	.loc	138 114 6               // /mnt/disk/jenkins/ci/workspace/chipset_10.x_patch/opensource/component_code/vendor/huawei/extra/build/build_script/kirin_kernel_release/kernel/include/linux/uaccess.h:114:6
	cbz	x9, .LBB0_20
.Ltmp24:
// %bb.8:
	//DEBUG_VALUE: _copy_from_user:to <- $x22
	//DEBUG_VALUE: copy_from_user:to <- $x22
	//DEBUG_VALUE: ufs_ioctl_vendor_package:ufs_vendor_ioctl_state_p <- $x19
	//DEBUG_VALUE: ufs_ioctl_vendor_package:buffer <- $x21
	//DEBUG_VALUE: ufs_ioctl_vendor_package:hba <- $x20
	.loc	137 245 20              // /mnt/disk/jenkins/ci/workspace/chipset_10.x_patch/opensource/component_code/vendor/huawei/extra/build/build_script/kirin_kernel_release/kernel/arch/arm64/include/asm/uaccess.h:245:20
	ldr	x8, [x24, #8]
	.loc	137 241 2               // /mnt/disk/jenkins/ci/workspace/chipset_10.x_patch/opensource/component_code/vendor/huawei/extra/build/build_script/kirin_kernel_release/kernel/arch/arm64/include/asm/uaccess.h:241:2
	//APP
		bics	xzr, x21, x8
	csel	x1, x21, xzr, eq

	//NO_APP
.Ltmp25:
	//DEBUG_VALUE: __uaccess_mask_ptr:safe_ptr <- $x1
	.loc	137 248 2               // /mnt/disk/jenkins/ci/workspace/chipset_10.x_patch/opensource/component_code/vendor/huawei/extra/build/build_script/kirin_kernel_release/kernel/arch/arm64/include/asm/uaccess.h:248:2
	//APP
	hint #20
	//NO_APP
.Ltmp26:
	.loc	138 116 9               // /mnt/disk/jenkins/ci/workspace/chipset_10.x_patch/opensource/component_code/vendor/huawei/extra/build/build_script/kirin_kernel_release/kernel/include/linux/uaccess.h:116:9
	orr	w2, wzr, #0x10
	mov	x0, x22
	bl	__arch_copy_from_user
.Ltmp27:
	.loc	138 118 6               // /mnt/disk/jenkins/ci/workspace/chipset_10.x_patch/opensource/component_code/vendor/huawei/extra/build/build_script/kirin_kernel_release/kernel/include/linux/uaccess.h:118:6
	cbnz	x0, .LBB0_21
.Ltmp28:
.LBB0_9:
	//DEBUG_VALUE: ufs_ioctl_vendor_package:ufs_vendor_ioctl_state_p <- $x19
	//DEBUG_VALUE: ufs_ioctl_vendor_package:buffer <- $x21
	//DEBUG_VALUE: ufs_ioctl_vendor_package:hba <- $x20
	.loc	135 108 3               // /mnt/disk/jenkins/ci/workspace/chipset_10.x_patch/opensource/component_code/vendor/huawei/extra/build/build_script/kirin_kernel_release/kernel/include/linux/thread_info.h:108:3
	add	x0, sp, #4              // =4
	orr	w1, wzr, #0x1
	mov	w2, wzr
.Ltmp29:
	.loc	124 58 42               // /mnt/disk/jenkins/ci/workspace/chipset_10.x_patch/opensource/component_code/vendor/huawei/extra/build/build_script/kirin_kernel_release/kernel/drivers/scsi/ufs/ufs_vendor_mode.c:58:42
	add	x21, x21, #16           // =16
.Ltmp30:
	//DEBUG_VALUE: check_object_size:to_user <- 0
	//DEBUG_VALUE: check_object_size:n <- 1
	//DEBUG_VALUE: check_copy_size:sz <- 1
	//DEBUG_VALUE: check_copy_size:is_source <- 0
	//DEBUG_VALUE: check_copy_size:bytes <- 1
	//DEBUG_VALUE: copy_from_user:n <- 1
	//DEBUG_VALUE: copy_from_user:from <- $x21
	//DEBUG_VALUE: __uaccess_mask_ptr:ptr <- $x21
	//DEBUG_VALUE: check_object_size:ptr <- [DW_OP_plus_uconst 4] $sp
	//DEBUG_VALUE: check_copy_size:addr <- [DW_OP_plus_uconst 4] $sp
	//DEBUG_VALUE: copy_from_user:to <- [DW_OP_plus_uconst 4] $sp
	//DEBUG_VALUE: ufs_ioctl_vendor_package:data_flag <- [DW_OP_plus_uconst 4, DW_OP_deref] $sp
	.loc	135 108 3               // /mnt/disk/jenkins/ci/workspace/chipset_10.x_patch/opensource/component_code/vendor/huawei/extra/build/build_script/kirin_kernel_release/kernel/include/linux/thread_info.h:108:3
	bl	__check_object_size
.Ltmp31:
	//DEBUG_VALUE: __range_ok:size <- 1
	//DEBUG_VALUE: _copy_from_user:to <- [DW_OP_plus_uconst 4] $sp
	//DEBUG_VALUE: __range_ok:addr <- $x21
	//DEBUG_VALUE: _copy_from_user:res <- 1
	//DEBUG_VALUE: _copy_from_user:n <- 1
	//DEBUG_VALUE: _copy_from_user:from <- $x21
	.loc	137 84 24               // /mnt/disk/jenkins/ci/workspace/chipset_10.x_patch/opensource/component_code/vendor/huawei/extra/build/build_script/kirin_kernel_release/kernel/arch/arm64/include/asm/uaccess.h:84:24
	ldr	x8, [x24, #8]
.Ltmp32:
	//DEBUG_VALUE: __range_ok:limit <- $x8
	.loc	137 87 2                // /mnt/disk/jenkins/ci/workspace/chipset_10.x_patch/opensource/component_code/vendor/huawei/extra/build/build_script/kirin_kernel_release/kernel/arch/arm64/include/asm/uaccess.h:87:2
	mov	x9, x21
	//APP
		adds	x9, x9, #1
	csel	x8, xzr, x8, hi
	csinv	x9, x9, xzr, cc
	sbcs	xzr, x9, x8
	cset	x9, ls

	//NO_APP
.Ltmp33:
	//DEBUG_VALUE: __range_ok:addr <- $x9
	.loc	138 114 6               // /mnt/disk/jenkins/ci/workspace/chipset_10.x_patch/opensource/component_code/vendor/huawei/extra/build/build_script/kirin_kernel_release/kernel/include/linux/uaccess.h:114:6
	cbz	x9, .LBB0_23
.Ltmp34:
// %bb.10:
	//DEBUG_VALUE: _copy_from_user:from <- $x21
	//DEBUG_VALUE: _copy_from_user:to <- [DW_OP_plus_uconst 4] $sp
	//DEBUG_VALUE: ufs_ioctl_vendor_package:data_flag <- [DW_OP_plus_uconst 4, DW_OP_deref] $sp
	//DEBUG_VALUE: copy_from_user:to <- [DW_OP_plus_uconst 4] $sp
	//DEBUG_VALUE: __uaccess_mask_ptr:ptr <- $x21
	//DEBUG_VALUE: copy_from_user:from <- $x21
	//DEBUG_VALUE: ufs_ioctl_vendor_package:ufs_vendor_ioctl_state_p <- $x19
	//DEBUG_VALUE: ufs_ioctl_vendor_package:hba <- $x20
	.loc	137 245 20              // /mnt/disk/jenkins/ci/workspace/chipset_10.x_patch/opensource/component_code/vendor/huawei/extra/build/build_script/kirin_kernel_release/kernel/arch/arm64/include/asm/uaccess.h:245:20
	ldr	x8, [x24, #8]
	.loc	137 241 2               // /mnt/disk/jenkins/ci/workspace/chipset_10.x_patch/opensource/component_code/vendor/huawei/extra/build/build_script/kirin_kernel_release/kernel/arch/arm64/include/asm/uaccess.h:241:2
	//APP
		bics	xzr, x21, x8
	csel	x1, x21, xzr, eq

	//NO_APP
.Ltmp35:
	//DEBUG_VALUE: __uaccess_mask_ptr:safe_ptr <- $x1
	.loc	137 248 2               // /mnt/disk/jenkins/ci/workspace/chipset_10.x_patch/opensource/component_code/vendor/huawei/extra/build/build_script/kirin_kernel_release/kernel/arch/arm64/include/asm/uaccess.h:248:2
	//APP
	hint #20
	//NO_APP
.Ltmp36:
	.loc	138 116 9               // /mnt/disk/jenkins/ci/workspace/chipset_10.x_patch/opensource/component_code/vendor/huawei/extra/build/build_script/kirin_kernel_release/kernel/include/linux/uaccess.h:116:9
	add	x0, sp, #4              // =4
	orr	w2, wzr, #0x1
	add	x21, sp, #4             // =4
.Ltmp37:
	bl	__arch_copy_from_user
.Ltmp38:
	.loc	138 118 6               // /mnt/disk/jenkins/ci/workspace/chipset_10.x_patch/opensource/component_code/vendor/huawei/extra/build/build_script/kirin_kernel_release/kernel/include/linux/uaccess.h:118:6
	cbnz	x0, .LBB0_24
.Ltmp39:
.LBB0_11:
	//DEBUG_VALUE: ufs_ioctl_vendor_package:data_flag <- [DW_OP_plus_uconst 4, DW_OP_deref] $sp
	//DEBUG_VALUE: ufs_ioctl_vendor_package:ufs_vendor_ioctl_state_p <- $x19
	//DEBUG_VALUE: ufs_ioctl_vendor_package:hba <- $x20
	.loc	124 63 6                // /mnt/disk/jenkins/ci/workspace/chipset_10.x_patch/opensource/component_code/vendor/huawei/extra/build/build_script/kirin_kernel_release/kernel/drivers/scsi/ufs/ufs_vendor_mode.c:63:6
	ldrb	w8, [sp, #4]
.Ltmp40:
	//DEBUG_VALUE: ufs_ioctl_vendor_package:data_flag <- $w8
	.loc	124 63 6 is_stmt 0      // /mnt/disk/jenkins/ci/workspace/chipset_10.x_patch/opensource/component_code/vendor/huawei/extra/build/build_script/kirin_kernel_release/kernel/drivers/scsi/ufs/ufs_vendor_mode.c:63:6
	cbz	w8, .LBB0_14
.Ltmp41:
// %bb.12:
	//DEBUG_VALUE: ufs_ioctl_vendor_package:data_flag <- $w8
	//DEBUG_VALUE: ufs_ioctl_vendor_package:ufs_vendor_ioctl_state_p <- $x19
	//DEBUG_VALUE: ufs_ioctl_vendor_package:hba <- $x20
	//DEBUG_VALUE: kzalloc:size <- 4096
	//DEBUG_VALUE: kzalloc:flags <- 20971712
	//DEBUG_VALUE: kmalloc:size <- 4096
	//DEBUG_VALUE: kmalloc:flags <- 21004480
	.loc	134 520 9 is_stmt 1     // /mnt/disk/jenkins/ci/workspace/chipset_10.x_patch/opensource/component_code/vendor/huawei/extra/build/build_script/kirin_kernel_release/kernel/include/linux/slab.h:520:9
	mov	w1, #32960
	orr	w0, wzr, #0x1000
	movk	w1, #320, lsl #16
	bl	__kmalloc
.Ltmp42:
	.loc	124 64 29               // /mnt/disk/jenkins/ci/workspace/chipset_10.x_patch/opensource/component_code/vendor/huawei/extra/build/build_script/kirin_kernel_release/kernel/drivers/scsi/ufs/ufs_vendor_mode.c:64:29
	ldr	x8, [x19]
	.loc	124 65 34               // /mnt/disk/jenkins/ci/workspace/chipset_10.x_patch/opensource/component_code/vendor/huawei/extra/build/build_script/kirin_kernel_release/kernel/drivers/scsi/ufs/ufs_vendor_mode.c:65:34
	ldrsw	x9, [x19, #8]
	.loc	124 65 45 is_stmt 0     // /mnt/disk/jenkins/ci/workspace/chipset_10.x_patch/opensource/component_code/vendor/huawei/extra/build/build_script/kirin_kernel_release/kernel/drivers/scsi/ufs/ufs_vendor_mode.c:65:45
	add	x8, x8, x9, lsl #5
	.loc	124 65 49               // /mnt/disk/jenkins/ci/workspace/chipset_10.x_patch/opensource/component_code/vendor/huawei/extra/build/build_script/kirin_kernel_release/kernel/drivers/scsi/ufs/ufs_vendor_mode.c:65:49
	str	x0, [x8, #24]
.Ltmp43:
	.loc	124 67 33 is_stmt 1     // /mnt/disk/jenkins/ci/workspace/chipset_10.x_patch/opensource/component_code/vendor/huawei/extra/build/build_script/kirin_kernel_release/kernel/drivers/scsi/ufs/ufs_vendor_mode.c:67:33
	ldr	x8, [x19]
	.loc	124 68 31               // /mnt/disk/jenkins/ci/workspace/chipset_10.x_patch/opensource/component_code/vendor/huawei/extra/build/build_script/kirin_kernel_release/kernel/drivers/scsi/ufs/ufs_vendor_mode.c:68:31
	ldrsw	x9, [x19, #8]
	.loc	124 68 42 is_stmt 0     // /mnt/disk/jenkins/ci/workspace/chipset_10.x_patch/opensource/component_code/vendor/huawei/extra/build/build_script/kirin_kernel_release/kernel/drivers/scsi/ufs/ufs_vendor_mode.c:68:42
	add	x8, x8, x9, lsl #5
	ldr	x9, [x8, #24]
.Ltmp44:
	.loc	124 67 7 is_stmt 1      // /mnt/disk/jenkins/ci/workspace/chipset_10.x_patch/opensource/component_code/vendor/huawei/extra/build/build_script/kirin_kernel_release/kernel/drivers/scsi/ufs/ufs_vendor_mode.c:67:7
	cbz	x9, .LBB0_16
.Ltmp45:
// %bb.13:
	//DEBUG_VALUE: ufs_ioctl_vendor_package:ufs_vendor_ioctl_state_p <- $x19
	//DEBUG_VALUE: ufs_ioctl_vendor_package:hba <- $x20
	.loc	124 0 7 is_stmt 0       // /mnt/disk/jenkins/ci/workspace/chipset_10.x_patch/opensource/component_code/vendor/huawei/extra/build/build_script/kirin_kernel_release/kernel/drivers/scsi/ufs/ufs_vendor_mode.c:0:7
	orr	w9, wzr, #0x1
	.loc	124 73 55 is_stmt 1     // /mnt/disk/jenkins/ci/workspace/chipset_10.x_patch/opensource/component_code/vendor/huawei/extra/build/build_script/kirin_kernel_release/kernel/drivers/scsi/ufs/ufs_vendor_mode.c:73:55
	str	w9, [x8, #16]
.Ltmp46:
.LBB0_14:
	//DEBUG_VALUE: ufs_ioctl_vendor_package:ufs_vendor_ioctl_state_p <- $x19
	//DEBUG_VALUE: ufs_ioctl_vendor_package:hba <- $x20
	.loc	124 75 37               // /mnt/disk/jenkins/ci/workspace/chipset_10.x_patch/opensource/component_code/vendor/huawei/extra/build/build_script/kirin_kernel_release/kernel/drivers/scsi/ufs/ufs_vendor_mode.c:75:37
	ldr	w8, [x19, #8]
	.loc	124 0 0 is_stmt 0       // /mnt/disk/jenkins/ci/workspace/chipset_10.x_patch/opensource/component_code/vendor/huawei/extra/build/build_script/kirin_kernel_release/kernel/drivers/scsi/ufs/ufs_vendor_mode.c:0:0
	mov	w22, wzr
	.loc	124 75 37               // /mnt/disk/jenkins/ci/workspace/chipset_10.x_patch/opensource/component_code/vendor/huawei/extra/build/build_script/kirin_kernel_release/kernel/drivers/scsi/ufs/ufs_vendor_mode.c:75:37
	add	w8, w8, #1              // =1
	str	w8, [x19, #8]
	b	.LBB0_17
.Ltmp47:
.LBB0_15:
	//DEBUG_VALUE: ufs_ioctl_vendor_package:ufs_vendor_ioctl_state_p <- $x19
	//DEBUG_VALUE: ufs_ioctl_vendor_package:buffer <- $x21
	//DEBUG_VALUE: ufs_ioctl_vendor_package:hba <- $x20
	.loc	124 42 17 is_stmt 1     // /mnt/disk/jenkins/ci/workspace/chipset_10.x_patch/opensource/component_code/vendor/huawei/extra/build/build_script/kirin_kernel_release/kernel/drivers/scsi/ufs/ufs_vendor_mode.c:42:17
	ldr	x0, [x20, #88]
	.loc	124 42 4 is_stmt 0      // /mnt/disk/jenkins/ci/workspace/chipset_10.x_patch/opensource/component_code/vendor/huawei/extra/build/build_script/kirin_kernel_release/kernel/drivers/scsi/ufs/ufs_vendor_mode.c:42:4
	adrp	x1, .L.str.3
	adrp	x2, .L__func__.ufs_ioctl_vendor_package
	add	x1, x1, :lo12:.L.str.3
	add	x2, x2, :lo12:.L__func__.ufs_ioctl_vendor_package
	bl	dev_err
.Ltmp48:
.LBB0_16:
	//DEBUG_VALUE: ufs_ioctl_vendor_package:ufs_vendor_ioctl_state_p <- $x19
	//DEBUG_VALUE: ufs_ioctl_vendor_package:hba <- $x20
	.loc	124 0 4                 // /mnt/disk/jenkins/ci/workspace/chipset_10.x_patch/opensource/component_code/vendor/huawei/extra/build/build_script/kirin_kernel_release/kernel/drivers/scsi/ufs/ufs_vendor_mode.c:0:4
	mov	w22, #-12
.Ltmp49:
	//DEBUG_VALUE: ufs_ioctl_vendor_package:err <- -12
.LBB0_17:
	//DEBUG_VALUE: ufs_ioctl_vendor_package:ufs_vendor_ioctl_state_p <- $x19
	//DEBUG_VALUE: ufs_ioctl_vendor_package:hba <- $x20
	//DEBUG_VALUE: ufs_ioctl_vendor_package:err <- $w22
	.loc	124 78 2 is_stmt 1      // /mnt/disk/jenkins/ci/workspace/chipset_10.x_patch/opensource/component_code/vendor/huawei/extra/build/build_script/kirin_kernel_release/kernel/drivers/scsi/ufs/ufs_vendor_mode.c:78:2
	adrp	x0, s_health_info_lock
	add	x0, x0, :lo12:s_health_info_lock
	bl	mutex_unlock
.Ltmp50:
.LBB0_18:
	//DEBUG_VALUE: ufs_ioctl_vendor_package:hba <- $x20
	.loc	124 0 2 is_stmt 0       // /mnt/disk/jenkins/ci/workspace/chipset_10.x_patch/opensource/component_code/vendor/huawei/extra/build/build_script/kirin_kernel_release/kernel/drivers/scsi/ufs/ufs_vendor_mode.c:0:2
	adrp	x9, __stack_chk_guard
	ldr	x8, [sp, #8]
	ldr	x9, [x9, :lo12:__stack_chk_guard]
	cmp	x9, x8
	b.ne	.LBB0_27
.Ltmp51:
// %bb.19:
	//DEBUG_VALUE: ufs_ioctl_vendor_package:hba <- $x20
	.loc	124 80 1 is_stmt 1      // /mnt/disk/jenkins/ci/workspace/chipset_10.x_patch/opensource/component_code/vendor/huawei/extra/build/build_script/kirin_kernel_release/kernel/drivers/scsi/ufs/ufs_vendor_mode.c:80:1
	mov	w0, w22
	ldp	x29, x30, [sp, #80]     // 16-byte Folded Reload
	ldp	x20, x19, [sp, #64]     // 16-byte Folded Reload
.Ltmp52:
	ldp	x22, x21, [sp, #48]     // 16-byte Folded Reload
	ldp	x24, x23, [sp, #32]     // 16-byte Folded Reload
	ldr	x25, [sp, #16]          // 8-byte Folded Reload
	add	sp, sp, #96             // =96
	ret
.LBB0_20:
.Ltmp53:
	//DEBUG_VALUE: _copy_from_user:to <- $x22
	//DEBUG_VALUE: copy_from_user:to <- $x22
	//DEBUG_VALUE: ufs_ioctl_vendor_package:ufs_vendor_ioctl_state_p <- $x19
	//DEBUG_VALUE: ufs_ioctl_vendor_package:buffer <- $x21
	//DEBUG_VALUE: ufs_ioctl_vendor_package:hba <- $x20
	.loc	138 119 3               // /mnt/disk/jenkins/ci/workspace/chipset_10.x_patch/opensource/component_code/vendor/huawei/extra/build/build_script/kirin_kernel_release/kernel/include/linux/uaccess.h:119:3
	stp	xzr, xzr, [x22]
	orr	w22, wzr, #0x10
.Ltmp54:
	.loc	138 0 3 is_stmt 0       // /mnt/disk/jenkins/ci/workspace/chipset_10.x_patch/opensource/component_code/vendor/huawei/extra/build/build_script/kirin_kernel_release/kernel/include/linux/uaccess.h:0:3
	b	.LBB0_22
.Ltmp55:
.LBB0_21:
	//DEBUG_VALUE: _copy_from_user:to <- $x22
	//DEBUG_VALUE: copy_from_user:to <- $x22
	//DEBUG_VALUE: ufs_ioctl_vendor_package:ufs_vendor_ioctl_state_p <- $x19
	//DEBUG_VALUE: ufs_ioctl_vendor_package:buffer <- $x21
	//DEBUG_VALUE: ufs_ioctl_vendor_package:hba <- $x20
	orr	w8, wzr, #0x10
	mov	x22, x0
.Ltmp56:
	//DEBUG_VALUE: copy_from_user:n <- $x22
	//DEBUG_VALUE: _copy_from_user:res <- $x22
	.loc	138 119 18              // /mnt/disk/jenkins/ci/workspace/chipset_10.x_patch/opensource/component_code/vendor/huawei/extra/build/build_script/kirin_kernel_release/kernel/include/linux/uaccess.h:119:18
	sub	x8, x8, x0
	.loc	138 119 13              // /mnt/disk/jenkins/ci/workspace/chipset_10.x_patch/opensource/component_code/vendor/huawei/extra/build/build_script/kirin_kernel_release/kernel/include/linux/uaccess.h:119:13
	add	x9, x23, x25, lsl #5
	add	x0, x9, x8
	.loc	138 119 3               // /mnt/disk/jenkins/ci/workspace/chipset_10.x_patch/opensource/component_code/vendor/huawei/extra/build/build_script/kirin_kernel_release/kernel/include/linux/uaccess.h:119:3
	mov	w1, wzr
	mov	x2, x22
	bl	memset
.Ltmp57:
	//DEBUG_VALUE: ufs_ioctl_vendor_package:err <- $w22
	.loc	124 53 6 is_stmt 1      // /mnt/disk/jenkins/ci/workspace/chipset_10.x_patch/opensource/component_code/vendor/huawei/extra/build/build_script/kirin_kernel_release/kernel/drivers/scsi/ufs/ufs_vendor_mode.c:53:6
	cbz	w22, .LBB0_9
.Ltmp58:
.LBB0_22:
	//DEBUG_VALUE: ufs_ioctl_vendor_package:ufs_vendor_ioctl_state_p <- $x19
	//DEBUG_VALUE: ufs_ioctl_vendor_package:buffer <- $x21
	//DEBUG_VALUE: ufs_ioctl_vendor_package:hba <- $x20
	.loc	124 54 16               // /mnt/disk/jenkins/ci/workspace/chipset_10.x_patch/opensource/component_code/vendor/huawei/extra/build/build_script/kirin_kernel_release/kernel/drivers/scsi/ufs/ufs_vendor_mode.c:54:16
	ldr	x0, [x20, #88]
	.loc	124 54 3 is_stmt 0      // /mnt/disk/jenkins/ci/workspace/chipset_10.x_patch/opensource/component_code/vendor/huawei/extra/build/build_script/kirin_kernel_release/kernel/drivers/scsi/ufs/ufs_vendor_mode.c:54:3
	adrp	x1, .L.str.4
	add	x1, x1, :lo12:.L.str.4
	b	.LBB0_26
.Ltmp59:
.LBB0_23:
	//DEBUG_VALUE: _copy_from_user:from <- $x21
	//DEBUG_VALUE: _copy_from_user:to <- [DW_OP_plus_uconst 4] $sp
	//DEBUG_VALUE: ufs_ioctl_vendor_package:data_flag <- [DW_OP_plus_uconst 4, DW_OP_deref] $sp
	//DEBUG_VALUE: copy_from_user:to <- [DW_OP_plus_uconst 4] $sp
	//DEBUG_VALUE: copy_from_user:from <- $x21
	//DEBUG_VALUE: ufs_ioctl_vendor_package:ufs_vendor_ioctl_state_p <- $x19
	//DEBUG_VALUE: ufs_ioctl_vendor_package:hba <- $x20
	.loc	138 119 3 is_stmt 1     // /mnt/disk/jenkins/ci/workspace/chipset_10.x_patch/opensource/component_code/vendor/huawei/extra/build/build_script/kirin_kernel_release/kernel/include/linux/uaccess.h:119:3
	strb	wzr, [sp, #4]
	orr	w22, wzr, #0x1
	b	.LBB0_25
.Ltmp60:
.LBB0_24:
	//DEBUG_VALUE: _copy_from_user:to <- [DW_OP_plus_uconst 4] $sp
	//DEBUG_VALUE: ufs_ioctl_vendor_package:data_flag <- [DW_OP_plus_uconst 4, DW_OP_deref] $sp
	//DEBUG_VALUE: copy_from_user:to <- [DW_OP_plus_uconst 4] $sp
	//DEBUG_VALUE: ufs_ioctl_vendor_package:ufs_vendor_ioctl_state_p <- $x19
	//DEBUG_VALUE: ufs_ioctl_vendor_package:hba <- $x20
	.loc	138 0 3 is_stmt 0       // /mnt/disk/jenkins/ci/workspace/chipset_10.x_patch/opensource/component_code/vendor/huawei/extra/build/build_script/kirin_kernel_release/kernel/include/linux/uaccess.h:0:3
	orr	w8, wzr, #0x1
	mov	x22, x0
.Ltmp61:
	//DEBUG_VALUE: _copy_from_user:res <- $x22
	//DEBUG_VALUE: copy_from_user:n <- $x22
	.loc	138 119 18              // /mnt/disk/jenkins/ci/workspace/chipset_10.x_patch/opensource/component_code/vendor/huawei/extra/build/build_script/kirin_kernel_release/kernel/include/linux/uaccess.h:119:18
	sub	x8, x8, x0
	.loc	138 119 13              // /mnt/disk/jenkins/ci/workspace/chipset_10.x_patch/opensource/component_code/vendor/huawei/extra/build/build_script/kirin_kernel_release/kernel/include/linux/uaccess.h:119:13
	add	x0, x21, x8
	.loc	138 119 3               // /mnt/disk/jenkins/ci/workspace/chipset_10.x_patch/opensource/component_code/vendor/huawei/extra/build/build_script/kirin_kernel_release/kernel/include/linux/uaccess.h:119:3
	mov	w1, wzr
	mov	x2, x22
	bl	memset
.Ltmp62:
	//DEBUG_VALUE: ufs_ioctl_vendor_package:err <- $w22
	.loc	124 59 6 is_stmt 1      // /mnt/disk/jenkins/ci/workspace/chipset_10.x_patch/opensource/component_code/vendor/huawei/extra/build/build_script/kirin_kernel_release/kernel/drivers/scsi/ufs/ufs_vendor_mode.c:59:6
	cbz	w22, .LBB0_11
.Ltmp63:
.LBB0_25:
	//DEBUG_VALUE: ufs_ioctl_vendor_package:data_flag <- [DW_OP_plus_uconst 4, DW_OP_deref] $sp
	//DEBUG_VALUE: ufs_ioctl_vendor_package:ufs_vendor_ioctl_state_p <- $x19
	//DEBUG_VALUE: ufs_ioctl_vendor_package:hba <- $x20
	.loc	124 60 16               // /mnt/disk/jenkins/ci/workspace/chipset_10.x_patch/opensource/component_code/vendor/huawei/extra/build/build_script/kirin_kernel_release/kernel/drivers/scsi/ufs/ufs_vendor_mode.c:60:16
	ldr	x0, [x20, #88]
	.loc	124 60 3 is_stmt 0      // /mnt/disk/jenkins/ci/workspace/chipset_10.x_patch/opensource/component_code/vendor/huawei/extra/build/build_script/kirin_kernel_release/kernel/drivers/scsi/ufs/ufs_vendor_mode.c:60:3
	adrp	x1, .L.str.5
	add	x1, x1, :lo12:.L.str.5
.Ltmp64:
.LBB0_26:
	//DEBUG_VALUE: ufs_ioctl_vendor_package:ufs_vendor_ioctl_state_p <- $x19
	//DEBUG_VALUE: ufs_ioctl_vendor_package:hba <- $x20
	.loc	124 0 0                 // /mnt/disk/jenkins/ci/workspace/chipset_10.x_patch/opensource/component_code/vendor/huawei/extra/build/build_script/kirin_kernel_release/kernel/drivers/scsi/ufs/ufs_vendor_mode.c:0:0
	adrp	x2, .L__func__.ufs_ioctl_vendor_package
	add	x2, x2, :lo12:.L__func__.ufs_ioctl_vendor_package
	bl	dev_err
	b	.LBB0_17
.Ltmp65:
.LBB0_27:
	//DEBUG_VALUE: ufs_ioctl_vendor_package:hba <- $x20
	bl	__stack_chk_fail
.Lfunc_end0:
	.size	ufs_ioctl_vendor_package, .Lfunc_end0-ufs_ioctl_vendor_package
	.cfi_endproc
                                        // -- End function
	.section	.text.ufs_ioctl_vendor_package_tick,"ax",@progbits
	.hidden	ufs_ioctl_vendor_package_tick // -- Begin function ufs_ioctl_vendor_package_tick
	.globl	ufs_ioctl_vendor_package_tick
	.p2align	2
	.type	ufs_ioctl_vendor_package_tick,@function
ufs_ioctl_vendor_package_tick:          // @ufs_ioctl_vendor_package_tick
.Lfunc_begin1:
	.loc	124 86 0 is_stmt 1      // /mnt/disk/jenkins/ci/workspace/chipset_10.x_patch/opensource/component_code/vendor/huawei/extra/build/build_script/kirin_kernel_release/kernel/drivers/scsi/ufs/ufs_vendor_mode.c:86:0
	.cfi_startproc
// %bb.0:
	sub	sp, sp, #112            // =112
	stp	x28, x27, [sp, #16]     // 16-byte Folded Spill
	stp	x26, x25, [sp, #32]     // 16-byte Folded Spill
	stp	x24, x23, [sp, #48]     // 16-byte Folded Spill
	stp	x22, x21, [sp, #64]     // 16-byte Folded Spill
	stp	x20, x19, [sp, #80]     // 16-byte Folded Spill
	stp	x29, x30, [sp, #96]     // 16-byte Folded Spill
	add	x29, sp, #96            // =96
	.cfi_def_cfa w29, 16
	.cfi_offset w30, -8
	.cfi_offset w29, -16
	.cfi_offset w19, -24
	.cfi_offset w20, -32
	.cfi_offset w21, -40
	.cfi_offset w22, -48
	.cfi_offset w23, -56
	.cfi_offset w24, -64
	.cfi_offset w25, -72
	.cfi_offset w26, -80
	.cfi_offset w27, -88
	.cfi_offset w28, -96
	//DEBUG_VALUE: ufs_ioctl_vendor_package_tick:hba <- $x0
	//DEBUG_VALUE: ufs_ioctl_vendor_package_tick:dev <- $x1
	//DEBUG_VALUE: ufs_ioctl_vendor_package_tick:ufs_vendor_ioctl_state_p <- $x2
	//DEBUG_VALUE: ufs_ioctl_vendor_package_tick:buffer <- $x3
	mov	x20, x0
.Ltmp66:
	//DEBUG_VALUE: ufs_ioctl_vendor_package_tick:index <- 0
	//DEBUG_VALUE: ufs_ioctl_vendor_package_tick:err <- 0
	//DEBUG_VALUE: ufs_ioctl_vendor_package_tick:hba <- $x20
	.loc	124 95 6 prologue_end   // /mnt/disk/jenkins/ci/workspace/chipset_10.x_patch/opensource/component_code/vendor/huawei/extra/build/build_script/kirin_kernel_release/kernel/drivers/scsi/ufs/ufs_vendor_mode.c:95:6
	cbz	x3, .LBB1_6
.Ltmp67:
// %bb.1:
	//DEBUG_VALUE: ufs_ioctl_vendor_package_tick:hba <- $x20
	//DEBUG_VALUE: ufs_ioctl_vendor_package_tick:buffer <- $x3
	//DEBUG_VALUE: ufs_ioctl_vendor_package_tick:ufs_vendor_ioctl_state_p <- $x2
	//DEBUG_VALUE: ufs_ioctl_vendor_package_tick:dev <- $x1
	.loc	124 100 2               // /mnt/disk/jenkins/ci/workspace/chipset_10.x_patch/opensource/component_code/vendor/huawei/extra/build/build_script/kirin_kernel_release/kernel/drivers/scsi/ufs/ufs_vendor_mode.c:100:2
	adrp	x0, s_health_info_lock
	add	x0, x0, :lo12:s_health_info_lock
	mov	x22, x3
.Ltmp68:
	//DEBUG_VALUE: ufs_ioctl_vendor_package_tick:buffer <- $x22
	.loc	124 0 2 is_stmt 0       // /mnt/disk/jenkins/ci/workspace/chipset_10.x_patch/opensource/component_code/vendor/huawei/extra/build/build_script/kirin_kernel_release/kernel/drivers/scsi/ufs/ufs_vendor_mode.c:0:2
	mov	x19, x2
.Ltmp69:
	//DEBUG_VALUE: ufs_ioctl_vendor_package_tick:ufs_vendor_ioctl_state_p <- $x19
	mov	x23, x1
.Ltmp70:
	//DEBUG_VALUE: ufs_ioctl_vendor_package_tick:dev <- $x23
	.loc	124 100 2               // /mnt/disk/jenkins/ci/workspace/chipset_10.x_patch/opensource/component_code/vendor/huawei/extra/build/build_script/kirin_kernel_release/kernel/drivers/scsi/ufs/ufs_vendor_mode.c:100:2
	bl	mutex_lock
.Ltmp71:
	.loc	124 102 6 is_stmt 1     // /mnt/disk/jenkins/ci/workspace/chipset_10.x_patch/opensource/component_code/vendor/huawei/extra/build/build_script/kirin_kernel_release/kernel/drivers/scsi/ufs/ufs_vendor_mode.c:102:6
	adrp	x8, jiffies
	adrp	x21, ufs_ioctl_vendor_package_tick.s_timeout
	ldr	x9, [x8, :lo12:jiffies]
	ldr	x10, [x21, :lo12:ufs_ioctl_vendor_package_tick.s_timeout]
	cmp	x9, x10
.Ltmp72:
	.loc	124 102 6 is_stmt 0     // /mnt/disk/jenkins/ci/workspace/chipset_10.x_patch/opensource/component_code/vendor/huawei/extra/build/build_script/kirin_kernel_release/kernel/drivers/scsi/ufs/ufs_vendor_mode.c:102:6
	b.mi	.LBB1_7
.Ltmp73:
// %bb.2:
	//DEBUG_VALUE: ufs_ioctl_vendor_package_tick:dev <- $x23
	//DEBUG_VALUE: ufs_ioctl_vendor_package_tick:ufs_vendor_ioctl_state_p <- $x19
	//DEBUG_VALUE: ufs_ioctl_vendor_package_tick:buffer <- $x22
	//DEBUG_VALUE: ufs_ioctl_vendor_package_tick:hba <- $x20
	.loc	124 108 15 is_stmt 1    // /mnt/disk/jenkins/ci/workspace/chipset_10.x_patch/opensource/component_code/vendor/huawei/extra/build/build_script/kirin_kernel_release/kernel/drivers/scsi/ufs/ufs_vendor_mode.c:108:15
	ldr	x24, [x8, :lo12:jiffies]
.Ltmp74:
	//DEBUG_VALUE: msecs_to_jiffies:m <- 1800000
	.file	139 "/mnt/disk/jenkins/ci/workspace/chipset_10.x_patch/opensource/component_code/vendor/huawei/extra/build/build_script/kirin_kernel_release/kernel/include/linux/jiffies.h"
	.loc	139 370 10              // /mnt/disk/jenkins/ci/workspace/chipset_10.x_patch/opensource/component_code/vendor/huawei/extra/build/build_script/kirin_kernel_release/kernel/include/linux/jiffies.h:370:10
	mov	w0, #30528
	movk	w0, #27, lsl #16
	bl	__msecs_to_jiffies
.Ltmp75:
	.loc	124 108 23              // /mnt/disk/jenkins/ci/workspace/chipset_10.x_patch/opensource/component_code/vendor/huawei/extra/build/build_script/kirin_kernel_release/kernel/drivers/scsi/ufs/ufs_vendor_mode.c:108:23
	add	x8, x0, x24
	.loc	124 108 13 is_stmt 0    // /mnt/disk/jenkins/ci/workspace/chipset_10.x_patch/opensource/component_code/vendor/huawei/extra/build/build_script/kirin_kernel_release/kernel/drivers/scsi/ufs/ufs_vendor_mode.c:108:13
	str	x8, [x21, :lo12:ufs_ioctl_vendor_package_tick.s_timeout]
.Ltmp76:
	.loc	124 112 2 is_stmt 1     // /mnt/disk/jenkins/ci/workspace/chipset_10.x_patch/opensource/component_code/vendor/huawei/extra/build/build_script/kirin_kernel_release/kernel/drivers/scsi/ufs/ufs_vendor_mode.c:112:2
	ldr	x0, [x20, #88]
	adrp	x1, .L.str.7
	adrp	x2, .L__func__.ufs_ioctl_vendor_package_tick
	add	x1, x1, :lo12:.L.str.7
	add	x2, x2, :lo12:.L__func__.ufs_ioctl_vendor_package_tick
	bl	_dev_info
.Ltmp77:
	.loc	124 114 32              // /mnt/disk/jenkins/ci/workspace/chipset_10.x_patch/opensource/component_code/vendor/huawei/extra/build/build_script/kirin_kernel_release/kernel/drivers/scsi/ufs/ufs_vendor_mode.c:114:32
	ldr	x8, [x19]
.Ltmp78:
	.loc	124 114 6 is_stmt 0     // /mnt/disk/jenkins/ci/workspace/chipset_10.x_patch/opensource/component_code/vendor/huawei/extra/build/build_script/kirin_kernel_release/kernel/drivers/scsi/ufs/ufs_vendor_mode.c:114:6
	cbz	x8, .LBB1_8
.Ltmp79:
// %bb.3:
	//DEBUG_VALUE: ufs_ioctl_vendor_package_tick:dev <- $x23
	//DEBUG_VALUE: ufs_ioctl_vendor_package_tick:ufs_vendor_ioctl_state_p <- $x19
	//DEBUG_VALUE: ufs_ioctl_vendor_package_tick:buffer <- $x22
	//DEBUG_VALUE: ufs_ioctl_vendor_package_tick:hba <- $x20
	.loc	124 121 27 is_stmt 1    // /mnt/disk/jenkins/ci/workspace/chipset_10.x_patch/opensource/component_code/vendor/huawei/extra/build/build_script/kirin_kernel_release/kernel/drivers/scsi/ufs/ufs_vendor_mode.c:121:27
	ldr	x0, [x20, #80]
	.loc	124 121 2 is_stmt 0     // /mnt/disk/jenkins/ci/workspace/chipset_10.x_patch/opensource/component_code/vendor/huawei/extra/build/build_script/kirin_kernel_release/kernel/drivers/scsi/ufs/ufs_vendor_mode.c:121:2
	bl	scsi_block_requests
	.loc	124 122 2 is_stmt 1     // /mnt/disk/jenkins/ci/workspace/chipset_10.x_patch/opensource/component_code/vendor/huawei/extra/build/build_script/kirin_kernel_release/kernel/drivers/scsi/ufs/ufs_vendor_mode.c:122:2
	ldr	x0, [x20, #88]
	adrp	x1, .L.str.9
	adrp	x2, .L__func__.ufs_ioctl_vendor_package_tick
	add	x1, x1, :lo12:.L.str.9
	add	x2, x2, :lo12:.L__func__.ufs_ioctl_vendor_package_tick
	bl	_dev_info
	.loc	124 123 8               // /mnt/disk/jenkins/ci/workspace/chipset_10.x_patch/opensource/component_code/vendor/huawei/extra/build/build_script/kirin_kernel_release/kernel/drivers/scsi/ufs/ufs_vendor_mode.c:123:8
	mov	w1, #5000
	mov	x0, x20
	bl	wait_for_ufs_all_complete
	.loc	124 124 6               // /mnt/disk/jenkins/ci/workspace/chipset_10.x_patch/opensource/component_code/vendor/huawei/extra/build/build_script/kirin_kernel_release/kernel/drivers/scsi/ufs/ufs_vendor_mode.c:124:6
	cbz	w0, .LBB1_9
.Ltmp80:
// %bb.4:
	//DEBUG_VALUE: ufs_ioctl_vendor_package_tick:dev <- $x23
	//DEBUG_VALUE: ufs_ioctl_vendor_package_tick:ufs_vendor_ioctl_state_p <- $x19
	//DEBUG_VALUE: ufs_ioctl_vendor_package_tick:buffer <- $x22
	//DEBUG_VALUE: ufs_ioctl_vendor_package_tick:hba <- $x20
	.loc	124 0 0 is_stmt 0       // /mnt/disk/jenkins/ci/workspace/chipset_10.x_patch/opensource/component_code/vendor/huawei/extra/build/build_script/kirin_kernel_release/kernel/drivers/scsi/ufs/ufs_vendor_mode.c:0:0
	mov	w21, w0
.Ltmp81:
	//DEBUG_VALUE: ufs_ioctl_vendor_package_tick:err <- $w21
	.loc	124 125 16 is_stmt 1    // /mnt/disk/jenkins/ci/workspace/chipset_10.x_patch/opensource/component_code/vendor/huawei/extra/build/build_script/kirin_kernel_release/kernel/drivers/scsi/ufs/ufs_vendor_mode.c:125:16
	ldr	x0, [x20, #88]
	.loc	124 125 3 is_stmt 0     // /mnt/disk/jenkins/ci/workspace/chipset_10.x_patch/opensource/component_code/vendor/huawei/extra/build/build_script/kirin_kernel_release/kernel/drivers/scsi/ufs/ufs_vendor_mode.c:125:3
	adrp	x1, .L.str.10
	add	x1, x1, :lo12:.L.str.10
.Ltmp82:
.LBB1_5:
	//DEBUG_VALUE: ufs_ioctl_vendor_package_tick:dev <- $x23
	//DEBUG_VALUE: ufs_ioctl_vendor_package_tick:ufs_vendor_ioctl_state_p <- $x19
	//DEBUG_VALUE: ufs_ioctl_vendor_package_tick:buffer <- $x22
	//DEBUG_VALUE: ufs_ioctl_vendor_package_tick:hba <- $x20
	.loc	124 0 0                 // /mnt/disk/jenkins/ci/workspace/chipset_10.x_patch/opensource/component_code/vendor/huawei/extra/build/build_script/kirin_kernel_release/kernel/drivers/scsi/ufs/ufs_vendor_mode.c:0:0
	adrp	x2, .L__func__.ufs_ioctl_vendor_package_tick
	add	x2, x2, :lo12:.L__func__.ufs_ioctl_vendor_package_tick
	mov	w3, w21
	bl	dev_err
	b	.LBB1_26
.Ltmp83:
.LBB1_6:
	//DEBUG_VALUE: ufs_ioctl_vendor_package_tick:hba <- $x20
	//DEBUG_VALUE: ufs_ioctl_vendor_package_tick:buffer <- $x3
	//DEBUG_VALUE: ufs_ioctl_vendor_package_tick:ufs_vendor_ioctl_state_p <- $x2
	//DEBUG_VALUE: ufs_ioctl_vendor_package_tick:dev <- $x1
	.loc	124 96 16 is_stmt 1     // /mnt/disk/jenkins/ci/workspace/chipset_10.x_patch/opensource/component_code/vendor/huawei/extra/build/build_script/kirin_kernel_release/kernel/drivers/scsi/ufs/ufs_vendor_mode.c:96:16
	ldr	x0, [x20, #88]
	.loc	124 96 3 is_stmt 0      // /mnt/disk/jenkins/ci/workspace/chipset_10.x_patch/opensource/component_code/vendor/huawei/extra/build/build_script/kirin_kernel_release/kernel/drivers/scsi/ufs/ufs_vendor_mode.c:96:3
	adrp	x1, .L.str
.Ltmp84:
	adrp	x2, .L__func__.ufs_ioctl_vendor_package_tick
.Ltmp85:
	add	x1, x1, :lo12:.L.str
	add	x2, x2, :lo12:.L__func__.ufs_ioctl_vendor_package_tick
	bl	dev_err
.Ltmp86:
	.loc	124 0 3                 // /mnt/disk/jenkins/ci/workspace/chipset_10.x_patch/opensource/component_code/vendor/huawei/extra/build/build_script/kirin_kernel_release/kernel/drivers/scsi/ufs/ufs_vendor_mode.c:0:3
	mov	w21, #-22
	b	.LBB1_37
.Ltmp87:
.LBB1_7:
	//DEBUG_VALUE: ufs_ioctl_vendor_package_tick:dev <- $x23
	//DEBUG_VALUE: ufs_ioctl_vendor_package_tick:ufs_vendor_ioctl_state_p <- $x19
	//DEBUG_VALUE: ufs_ioctl_vendor_package_tick:buffer <- $x22
	//DEBUG_VALUE: ufs_ioctl_vendor_package_tick:hba <- $x20
	.loc	124 103 16 is_stmt 1    // /mnt/disk/jenkins/ci/workspace/chipset_10.x_patch/opensource/component_code/vendor/huawei/extra/build/build_script/kirin_kernel_release/kernel/drivers/scsi/ufs/ufs_vendor_mode.c:103:16
	ldr	x0, [x20, #88]
	.loc	124 103 3 is_stmt 0     // /mnt/disk/jenkins/ci/workspace/chipset_10.x_patch/opensource/component_code/vendor/huawei/extra/build/build_script/kirin_kernel_release/kernel/drivers/scsi/ufs/ufs_vendor_mode.c:103:3
	adrp	x1, .L.str.6
	adrp	x2, .L__func__.ufs_ioctl_vendor_package_tick
	add	x1, x1, :lo12:.L.str.6
	add	x2, x2, :lo12:.L__func__.ufs_ioctl_vendor_package_tick
	bl	dev_err
	orr	w21, wzr, #0xfffffff0
.Ltmp88:
	//DEBUG_VALUE: ufs_ioctl_vendor_package_tick:err <- -16
	.loc	124 0 3                 // /mnt/disk/jenkins/ci/workspace/chipset_10.x_patch/opensource/component_code/vendor/huawei/extra/build/build_script/kirin_kernel_release/kernel/drivers/scsi/ufs/ufs_vendor_mode.c:0:3
	b	.LBB1_36
.Ltmp89:
.LBB1_8:
	//DEBUG_VALUE: ufs_ioctl_vendor_package_tick:dev <- $x23
	//DEBUG_VALUE: ufs_ioctl_vendor_package_tick:ufs_vendor_ioctl_state_p <- $x19
	//DEBUG_VALUE: ufs_ioctl_vendor_package_tick:buffer <- $x22
	//DEBUG_VALUE: ufs_ioctl_vendor_package_tick:hba <- $x20
	.loc	124 115 16 is_stmt 1    // /mnt/disk/jenkins/ci/workspace/chipset_10.x_patch/opensource/component_code/vendor/huawei/extra/build/build_script/kirin_kernel_release/kernel/drivers/scsi/ufs/ufs_vendor_mode.c:115:16
	ldr	x0, [x20, #88]
	.loc	124 115 3 is_stmt 0     // /mnt/disk/jenkins/ci/workspace/chipset_10.x_patch/opensource/component_code/vendor/huawei/extra/build/build_script/kirin_kernel_release/kernel/drivers/scsi/ufs/ufs_vendor_mode.c:115:3
	adrp	x1, .L.str.8
	adrp	x2, .L__func__.ufs_ioctl_vendor_package_tick
	add	x1, x1, :lo12:.L.str.8
	add	x2, x2, :lo12:.L__func__.ufs_ioctl_vendor_package_tick
	bl	dev_err
	mov	w21, #-22
.Ltmp90:
	//DEBUG_VALUE: ufs_ioctl_vendor_package_tick:err <- -22
	.loc	124 0 3                 // /mnt/disk/jenkins/ci/workspace/chipset_10.x_patch/opensource/component_code/vendor/huawei/extra/build/build_script/kirin_kernel_release/kernel/drivers/scsi/ufs/ufs_vendor_mode.c:0:3
	b	.LBB1_36
.Ltmp91:
.LBB1_9:
	//DEBUG_VALUE: ufs_ioctl_vendor_package_tick:dev <- $x23
	//DEBUG_VALUE: ufs_ioctl_vendor_package_tick:ufs_vendor_ioctl_state_p <- $x19
	//DEBUG_VALUE: ufs_ioctl_vendor_package_tick:buffer <- $x22
	//DEBUG_VALUE: ufs_ioctl_vendor_package_tick:hba <- $x20
	//DEBUG_VALUE: ufs_ioctl_vendor_package_tick:err <- 0
	//DEBUG_VALUE: ufs_ioctl_vendor_package_tick:index <- 0
	.loc	124 129 52 is_stmt 1    // /mnt/disk/jenkins/ci/workspace/chipset_10.x_patch/opensource/component_code/vendor/huawei/extra/build/build_script/kirin_kernel_release/kernel/drivers/scsi/ufs/ufs_vendor_mode.c:129:52
	ldr	w8, [x19, #8]
.Ltmp92:
	.loc	124 129 2 is_stmt 0     // /mnt/disk/jenkins/ci/workspace/chipset_10.x_patch/opensource/component_code/vendor/huawei/extra/build/build_script/kirin_kernel_release/kernel/drivers/scsi/ufs/ufs_vendor_mode.c:129:2
	cmp	w8, #1                  // =1
	b.lt	.LBB1_25
.Ltmp93:
// %bb.10:
	//DEBUG_VALUE: ufs_ioctl_vendor_package_tick:dev <- $x23
	//DEBUG_VALUE: ufs_ioctl_vendor_package_tick:ufs_vendor_ioctl_state_p <- $x19
	//DEBUG_VALUE: ufs_ioctl_vendor_package_tick:buffer <- $x22
	//DEBUG_VALUE: ufs_ioctl_vendor_package_tick:hba <- $x20
	.loc	124 0 2                 // /mnt/disk/jenkins/ci/workspace/chipset_10.x_patch/opensource/component_code/vendor/huawei/extra/build/build_script/kirin_kernel_release/kernel/drivers/scsi/ufs/ufs_vendor_mode.c:0:2
	mov	x25, xzr
	mov	x26, xzr
	mov	x27, xzr
	//APP
	mrs x8, sp_el0
	//NO_APP
	str	x8, [sp, #8]            // 8-byte Folded Spill
.Ltmp94:
.LBB1_11:                               // =>This Inner Loop Header: Depth=1
	//DEBUG_VALUE: ufs_ioctl_vendor_package_tick:dev <- $x23
	//DEBUG_VALUE: ufs_ioctl_vendor_package_tick:ufs_vendor_ioctl_state_p <- $x19
	//DEBUG_VALUE: ufs_ioctl_vendor_package_tick:buffer <- $x22
	//DEBUG_VALUE: ufs_ioctl_vendor_package_tick:hba <- $x20
	//DEBUG_VALUE: ufs_ioctl_vendor_package_tick:index <- $x27
	.loc	124 130 44 is_stmt 1    // /mnt/disk/jenkins/ci/workspace/chipset_10.x_patch/opensource/component_code/vendor/huawei/extra/build/build_script/kirin_kernel_release/kernel/drivers/scsi/ufs/ufs_vendor_mode.c:130:44
	ldr	x28, [x19]
.Ltmp95:
	.loc	124 131 8               // /mnt/disk/jenkins/ci/workspace/chipset_10.x_patch/opensource/component_code/vendor/huawei/extra/build/build_script/kirin_kernel_release/kernel/drivers/scsi/ufs/ufs_vendor_mode.c:131:8
	add	x2, x28, x25
	ldrb	w3, [x2]
	.loc	124 131 50 is_stmt 0    // /mnt/disk/jenkins/ci/workspace/chipset_10.x_patch/opensource/component_code/vendor/huawei/extra/build/build_script/kirin_kernel_release/kernel/drivers/scsi/ufs/ufs_vendor_mode.c:131:50
	sub	w8, w3, #4              // =4
	cmp	w8, #62                 // =62
	b.hi	.LBB1_13
.Ltmp96:
// %bb.12:                              //   in Loop: Header=BB1_11 Depth=1
	//DEBUG_VALUE: ufs_ioctl_vendor_package_tick:index <- $x27
	//DEBUG_VALUE: ufs_ioctl_vendor_package_tick:dev <- $x23
	//DEBUG_VALUE: ufs_ioctl_vendor_package_tick:ufs_vendor_ioctl_state_p <- $x19
	//DEBUG_VALUE: ufs_ioctl_vendor_package_tick:buffer <- $x22
	//DEBUG_VALUE: ufs_ioctl_vendor_package_tick:hba <- $x20
	.loc	124 0 50                // /mnt/disk/jenkins/ci/workspace/chipset_10.x_patch/opensource/component_code/vendor/huawei/extra/build/build_script/kirin_kernel_release/kernel/drivers/scsi/ufs/ufs_vendor_mode.c:0:50
	orr	w9, wzr, #0x1
	lsl	x8, x9, x8
	mov	x9, #81
	movk	x9, #80, lsl #32
	movk	x9, #16384, lsl #48
	tst	x8, x9
	b.ne	.LBB1_24
.Ltmp97:
.LBB1_13:                               //   in Loop: Header=BB1_11 Depth=1
	//DEBUG_VALUE: ufs_ioctl_vendor_package_tick:index <- $x27
	//DEBUG_VALUE: ufs_ioctl_vendor_package_tick:dev <- $x23
	//DEBUG_VALUE: ufs_ioctl_vendor_package_tick:ufs_vendor_ioctl_state_p <- $x19
	//DEBUG_VALUE: ufs_ioctl_vendor_package_tick:buffer <- $x22
	//DEBUG_VALUE: ufs_ioctl_vendor_package_tick:hba <- $x20
	.loc	124 131 50              // /mnt/disk/jenkins/ci/workspace/chipset_10.x_patch/opensource/component_code/vendor/huawei/extra/build/build_script/kirin_kernel_release/kernel/drivers/scsi/ufs/ufs_vendor_mode.c:131:50
	cmp	w3, #138                // =138
	b.eq	.LBB1_24
.Ltmp98:
// %bb.14:                              //   in Loop: Header=BB1_11 Depth=1
	//DEBUG_VALUE: ufs_ioctl_vendor_package_tick:index <- $x27
	//DEBUG_VALUE: ufs_ioctl_vendor_package_tick:dev <- $x23
	//DEBUG_VALUE: ufs_ioctl_vendor_package_tick:ufs_vendor_ioctl_state_p <- $x19
	//DEBUG_VALUE: ufs_ioctl_vendor_package_tick:buffer <- $x22
	//DEBUG_VALUE: ufs_ioctl_vendor_package_tick:hba <- $x20
	cmp	w3, #136                // =136
	b.eq	.LBB1_24
.Ltmp99:
// %bb.15:                              //   in Loop: Header=BB1_11 Depth=1
	//DEBUG_VALUE: ufs_ioctl_vendor_package_tick:index <- $x27
	//DEBUG_VALUE: ufs_ioctl_vendor_package_tick:dev <- $x23
	//DEBUG_VALUE: ufs_ioctl_vendor_package_tick:ufs_vendor_ioctl_state_p <- $x19
	//DEBUG_VALUE: ufs_ioctl_vendor_package_tick:buffer <- $x22
	//DEBUG_VALUE: ufs_ioctl_vendor_package_tick:hba <- $x20
	.loc	124 145 19 is_stmt 1    // /mnt/disk/jenkins/ci/workspace/chipset_10.x_patch/opensource/component_code/vendor/huawei/extra/build/build_script/kirin_kernel_release/kernel/drivers/scsi/ufs/ufs_vendor_mode.c:145:19
	add	x8, x28, x25
	ldr	w9, [x8, #16]
.Ltmp100:
	.loc	124 145 7 is_stmt 0     // /mnt/disk/jenkins/ci/workspace/chipset_10.x_patch/opensource/component_code/vendor/huawei/extra/build/build_script/kirin_kernel_release/kernel/drivers/scsi/ufs/ufs_vendor_mode.c:145:7
	cbz	w9, .LBB1_17
.Ltmp101:
// %bb.16:                              //   in Loop: Header=BB1_11 Depth=1
	//DEBUG_VALUE: ufs_ioctl_vendor_package_tick:index <- $x27
	//DEBUG_VALUE: ufs_ioctl_vendor_package_tick:dev <- $x23
	//DEBUG_VALUE: ufs_ioctl_vendor_package_tick:ufs_vendor_ioctl_state_p <- $x19
	//DEBUG_VALUE: ufs_ioctl_vendor_package_tick:buffer <- $x22
	//DEBUG_VALUE: ufs_ioctl_vendor_package_tick:hba <- $x20
	.loc	124 146 20 is_stmt 1    // /mnt/disk/jenkins/ci/workspace/chipset_10.x_patch/opensource/component_code/vendor/huawei/extra/build/build_script/kirin_kernel_release/kernel/drivers/scsi/ufs/ufs_vendor_mode.c:146:20
	ldr	x24, [x8, #24]
	cbnz	x24, .LBB1_18
	b	.LBB1_39
.Ltmp102:
.LBB1_17:                               //   in Loop: Header=BB1_11 Depth=1
	//DEBUG_VALUE: ufs_ioctl_vendor_package_tick:index <- $x27
	//DEBUG_VALUE: ufs_ioctl_vendor_package_tick:dev <- $x23
	//DEBUG_VALUE: ufs_ioctl_vendor_package_tick:ufs_vendor_ioctl_state_p <- $x19
	//DEBUG_VALUE: ufs_ioctl_vendor_package_tick:buffer <- $x22
	//DEBUG_VALUE: ufs_ioctl_vendor_package_tick:hba <- $x20
	//DEBUG_VALUE: ufs_ioctl_vendor_package_tick:buf <- $xzr
	.loc	124 0 0 is_stmt 0       // /mnt/disk/jenkins/ci/workspace/chipset_10.x_patch/opensource/component_code/vendor/huawei/extra/build/build_script/kirin_kernel_release/kernel/drivers/scsi/ufs/ufs_vendor_mode.c:0:0
	mov	x24, xzr
.Ltmp103:
.LBB1_18:                               //   in Loop: Header=BB1_11 Depth=1
	//DEBUG_VALUE: ufs_ioctl_vendor_package_tick:index <- $x27
	//DEBUG_VALUE: ufs_ioctl_vendor_package_tick:dev <- $x23
	//DEBUG_VALUE: ufs_ioctl_vendor_package_tick:ufs_vendor_ioctl_state_p <- $x19
	//DEBUG_VALUE: ufs_ioctl_vendor_package_tick:buffer <- $x22
	//DEBUG_VALUE: ufs_ioctl_vendor_package_tick:hba <- $x20
	//DEBUG_VALUE: ufs_ioctl_vendor_package_tick:buf <- $x24
	//DEBUG_VALUE: _copy_to_user:from <- $x24
	//DEBUG_VALUE: check_object_size:ptr <- $x24
	//DEBUG_VALUE: check_copy_size:addr <- $x24
	//DEBUG_VALUE: copy_to_user:from <- $x24
	.loc	124 153 9 is_stmt 1     // /mnt/disk/jenkins/ci/workspace/chipset_10.x_patch/opensource/component_code/vendor/huawei/extra/build/build_script/kirin_kernel_release/kernel/drivers/scsi/ufs/ufs_vendor_mode.c:153:9
	mov	x0, x20
	mov	x1, x23
	mov	x3, x24
	bl	ufshcd_send_vendor_scsi_cmd
	cbnz	w0, .LBB1_38
.Ltmp104:
// %bb.19:                              //   in Loop: Header=BB1_11 Depth=1
	//DEBUG_VALUE: ufs_ioctl_vendor_package_tick:buf <- $x24
	//DEBUG_VALUE: ufs_ioctl_vendor_package_tick:index <- $x27
	//DEBUG_VALUE: ufs_ioctl_vendor_package_tick:dev <- $x23
	//DEBUG_VALUE: ufs_ioctl_vendor_package_tick:ufs_vendor_ioctl_state_p <- $x19
	//DEBUG_VALUE: ufs_ioctl_vendor_package_tick:buffer <- $x22
	//DEBUG_VALUE: ufs_ioctl_vendor_package_tick:hba <- $x20
	.loc	124 160 7               // /mnt/disk/jenkins/ci/workspace/chipset_10.x_patch/opensource/component_code/vendor/huawei/extra/build/build_script/kirin_kernel_release/kernel/drivers/scsi/ufs/ufs_vendor_mode.c:160:7
	cbz	x24, .LBB1_22
.Ltmp105:
// %bb.20:                              //   in Loop: Header=BB1_11 Depth=1
	//DEBUG_VALUE: ufs_ioctl_vendor_package_tick:buf <- $x24
	//DEBUG_VALUE: ufs_ioctl_vendor_package_tick:index <- $x27
	//DEBUG_VALUE: ufs_ioctl_vendor_package_tick:dev <- $x23
	//DEBUG_VALUE: ufs_ioctl_vendor_package_tick:ufs_vendor_ioctl_state_p <- $x19
	//DEBUG_VALUE: ufs_ioctl_vendor_package_tick:buffer <- $x22
	//DEBUG_VALUE: ufs_ioctl_vendor_package_tick:hba <- $x20
	.loc	124 162 15              // /mnt/disk/jenkins/ci/workspace/chipset_10.x_patch/opensource/component_code/vendor/huawei/extra/build/build_script/kirin_kernel_release/kernel/drivers/scsi/ufs/ufs_vendor_mode.c:162:15
	and	x8, x26, #0xffffff00
.Ltmp106:
	.loc	135 108 3               // /mnt/disk/jenkins/ci/workspace/chipset_10.x_patch/opensource/component_code/vendor/huawei/extra/build/build_script/kirin_kernel_release/kernel/include/linux/thread_info.h:108:3
	orr	w1, wzr, #0x100
	orr	w2, wzr, #0x1
	mov	x0, x24
.Ltmp107:
	.loc	124 162 15              // /mnt/disk/jenkins/ci/workspace/chipset_10.x_patch/opensource/component_code/vendor/huawei/extra/build/build_script/kirin_kernel_release/kernel/drivers/scsi/ufs/ufs_vendor_mode.c:162:15
	add	x28, x22, x8
.Ltmp108:
	//DEBUG_VALUE: check_object_size:to_user <- -1
	//DEBUG_VALUE: check_object_size:n <- 256
	//DEBUG_VALUE: check_copy_size:sz <- -1
	//DEBUG_VALUE: check_copy_size:is_source <- -1
	//DEBUG_VALUE: check_copy_size:bytes <- 256
	//DEBUG_VALUE: copy_to_user:n <- 256
	//DEBUG_VALUE: copy_to_user:to <- $x28
	//DEBUG_VALUE: __uaccess_mask_ptr:ptr <- $x28
	.loc	124 0 15 is_stmt 0      // /mnt/disk/jenkins/ci/workspace/chipset_10.x_patch/opensource/component_code/vendor/huawei/extra/build/build_script/kirin_kernel_release/kernel/drivers/scsi/ufs/ufs_vendor_mode.c:0:15
	orr	w21, wzr, #0x100
.Ltmp109:
	.loc	135 108 3 is_stmt 1     // /mnt/disk/jenkins/ci/workspace/chipset_10.x_patch/opensource/component_code/vendor/huawei/extra/build/build_script/kirin_kernel_release/kernel/include/linux/thread_info.h:108:3
	bl	__check_object_size
.Ltmp110:
	//DEBUG_VALUE: get_current:sp_el0 <- [DW_OP_plus_uconst 8] [$sp+0]
	//DEBUG_VALUE: get_current:sp_el0 <- [DW_OP_plus_uconst 8] [$sp+0]
	.loc	135 0 3 is_stmt 0       // /mnt/disk/jenkins/ci/workspace/chipset_10.x_patch/opensource/component_code/vendor/huawei/extra/build/build_script/kirin_kernel_release/kernel/include/linux/thread_info.h:0:3
	ldr	x10, [sp, #8]           // 8-byte Folded Reload
.Ltmp111:
	//DEBUG_VALUE: __range_ok:size <- 256
	//DEBUG_VALUE: __range_ok:addr <- $x28
	//DEBUG_VALUE: _copy_to_user:n <- 256
	//DEBUG_VALUE: _copy_to_user:to <- $x28
	.loc	137 87 2 is_stmt 1      // /mnt/disk/jenkins/ci/workspace/chipset_10.x_patch/opensource/component_code/vendor/huawei/extra/build/build_script/kirin_kernel_release/kernel/arch/arm64/include/asm/uaccess.h:87:2
	mov	x9, x28
	.loc	137 84 24               // /mnt/disk/jenkins/ci/workspace/chipset_10.x_patch/opensource/component_code/vendor/huawei/extra/build/build_script/kirin_kernel_release/kernel/arch/arm64/include/asm/uaccess.h:84:24
	ldr	x8, [x10, #8]
.Ltmp112:
	//DEBUG_VALUE: __range_ok:limit <- $x8
	.loc	137 87 2                // /mnt/disk/jenkins/ci/workspace/chipset_10.x_patch/opensource/component_code/vendor/huawei/extra/build/build_script/kirin_kernel_release/kernel/arch/arm64/include/asm/uaccess.h:87:2
	//APP
		adds	x9, x9, #256
	csel	x8, xzr, x8, hi
	csinv	x9, x9, xzr, cc
	sbcs	xzr, x9, x8
	cset	x9, ls

	//NO_APP
.Ltmp113:
	//DEBUG_VALUE: __range_ok:addr <- $x9
	.loc	138 132 6               // /mnt/disk/jenkins/ci/workspace/chipset_10.x_patch/opensource/component_code/vendor/huawei/extra/build/build_script/kirin_kernel_release/kernel/include/linux/uaccess.h:132:6
	cbz	x9, .LBB1_23
.Ltmp114:
// %bb.21:                              //   in Loop: Header=BB1_11 Depth=1
	//DEBUG_VALUE: _copy_to_user:to <- $x28
	//DEBUG_VALUE: __uaccess_mask_ptr:ptr <- $x28
	//DEBUG_VALUE: copy_to_user:to <- $x28
	//DEBUG_VALUE: ufs_ioctl_vendor_package_tick:buf <- $x24
	//DEBUG_VALUE: ufs_ioctl_vendor_package_tick:index <- $x27
	//DEBUG_VALUE: ufs_ioctl_vendor_package_tick:dev <- $x23
	//DEBUG_VALUE: ufs_ioctl_vendor_package_tick:ufs_vendor_ioctl_state_p <- $x19
	//DEBUG_VALUE: ufs_ioctl_vendor_package_tick:buffer <- $x22
	//DEBUG_VALUE: ufs_ioctl_vendor_package_tick:hba <- $x20
	.loc	137 245 20              // /mnt/disk/jenkins/ci/workspace/chipset_10.x_patch/opensource/component_code/vendor/huawei/extra/build/build_script/kirin_kernel_release/kernel/arch/arm64/include/asm/uaccess.h:245:20
	ldr	x8, [x10, #8]
	.loc	137 241 2               // /mnt/disk/jenkins/ci/workspace/chipset_10.x_patch/opensource/component_code/vendor/huawei/extra/build/build_script/kirin_kernel_release/kernel/arch/arm64/include/asm/uaccess.h:241:2
	//APP
		bics	xzr, x28, x8
	csel	x0, x28, xzr, eq

	//NO_APP
.Ltmp115:
	//DEBUG_VALUE: __uaccess_mask_ptr:safe_ptr <- $x0
	.loc	137 248 2               // /mnt/disk/jenkins/ci/workspace/chipset_10.x_patch/opensource/component_code/vendor/huawei/extra/build/build_script/kirin_kernel_release/kernel/arch/arm64/include/asm/uaccess.h:248:2
	//APP
	hint #20
	//NO_APP
.Ltmp116:
	.loc	138 134 7               // /mnt/disk/jenkins/ci/workspace/chipset_10.x_patch/opensource/component_code/vendor/huawei/extra/build/build_script/kirin_kernel_release/kernel/include/linux/uaccess.h:134:7
	orr	w2, wzr, #0x100
	mov	x1, x24
	bl	__arch_copy_to_user
.Ltmp117:
	mov	x21, x0
.Ltmp118:
	//DEBUG_VALUE: copy_to_user:n <- $x21
	//DEBUG_VALUE: _copy_to_user:n <- $x21
	//DEBUG_VALUE: ufs_ioctl_vendor_package_tick:err <- $w21
	.loc	124 165 8               // /mnt/disk/jenkins/ci/workspace/chipset_10.x_patch/opensource/component_code/vendor/huawei/extra/build/build_script/kirin_kernel_release/kernel/drivers/scsi/ufs/ufs_vendor_mode.c:165:8
	cbnz	w21, .LBB1_23
.Ltmp119:
.LBB1_22:                               //   in Loop: Header=BB1_11 Depth=1
	//DEBUG_VALUE: ufs_ioctl_vendor_package_tick:buf <- $x24
	//DEBUG_VALUE: ufs_ioctl_vendor_package_tick:index <- $x27
	//DEBUG_VALUE: ufs_ioctl_vendor_package_tick:dev <- $x23
	//DEBUG_VALUE: ufs_ioctl_vendor_package_tick:ufs_vendor_ioctl_state_p <- $x19
	//DEBUG_VALUE: ufs_ioctl_vendor_package_tick:buffer <- $x22
	//DEBUG_VALUE: ufs_ioctl_vendor_package_tick:hba <- $x20
	//DEBUG_VALUE: ufs_ioctl_vendor_package_tick:err <- 0
	//DEBUG_VALUE: ufs_ioctl_vendor_package_tick:index <- [DW_OP_plus_uconst 1, DW_OP_stack_value] undef
	.loc	124 129 52              // /mnt/disk/jenkins/ci/workspace/chipset_10.x_patch/opensource/component_code/vendor/huawei/extra/build/build_script/kirin_kernel_release/kernel/drivers/scsi/ufs/ufs_vendor_mode.c:129:52
	ldrsw	x8, [x19, #8]
	.loc	124 129 68 is_stmt 0    // /mnt/disk/jenkins/ci/workspace/chipset_10.x_patch/opensource/component_code/vendor/huawei/extra/build/build_script/kirin_kernel_release/kernel/drivers/scsi/ufs/ufs_vendor_mode.c:129:68
	add	x27, x27, #1            // =1
	.loc	124 129 24              // /mnt/disk/jenkins/ci/workspace/chipset_10.x_patch/opensource/component_code/vendor/huawei/extra/build/build_script/kirin_kernel_release/kernel/drivers/scsi/ufs/ufs_vendor_mode.c:129:24
	add	x26, x26, #256          // =256
	add	x25, x25, #32           // =32
.Ltmp120:
	.loc	124 129 2               // /mnt/disk/jenkins/ci/workspace/chipset_10.x_patch/opensource/component_code/vendor/huawei/extra/build/build_script/kirin_kernel_release/kernel/drivers/scsi/ufs/ufs_vendor_mode.c:129:2
	cmp	x27, x8
	b.lt	.LBB1_11
	b	.LBB1_25
.Ltmp121:
.LBB1_23:
	//DEBUG_VALUE: ufs_ioctl_vendor_package_tick:buf <- $x24
	//DEBUG_VALUE: ufs_ioctl_vendor_package_tick:index <- $x27
	//DEBUG_VALUE: ufs_ioctl_vendor_package_tick:dev <- $x23
	//DEBUG_VALUE: ufs_ioctl_vendor_package_tick:ufs_vendor_ioctl_state_p <- $x19
	//DEBUG_VALUE: ufs_ioctl_vendor_package_tick:buffer <- $x22
	//DEBUG_VALUE: ufs_ioctl_vendor_package_tick:hba <- $x20
	.loc	124 166 18 is_stmt 1    // /mnt/disk/jenkins/ci/workspace/chipset_10.x_patch/opensource/component_code/vendor/huawei/extra/build/build_script/kirin_kernel_release/kernel/drivers/scsi/ufs/ufs_vendor_mode.c:166:18
	ldr	x0, [x20, #88]
	.loc	124 166 5 is_stmt 0     // /mnt/disk/jenkins/ci/workspace/chipset_10.x_patch/opensource/component_code/vendor/huawei/extra/build/build_script/kirin_kernel_release/kernel/drivers/scsi/ufs/ufs_vendor_mode.c:166:5
	adrp	x1, .L.str.14
	add	x1, x1, :lo12:.L.str.14
	b	.LBB1_5
.Ltmp122:
.LBB1_24:
	//DEBUG_VALUE: ufs_ioctl_vendor_package_tick:index <- $x27
	//DEBUG_VALUE: ufs_ioctl_vendor_package_tick:dev <- $x23
	//DEBUG_VALUE: ufs_ioctl_vendor_package_tick:ufs_vendor_ioctl_state_p <- $x19
	//DEBUG_VALUE: ufs_ioctl_vendor_package_tick:buffer <- $x22
	//DEBUG_VALUE: ufs_ioctl_vendor_package_tick:hba <- $x20
	.loc	124 139 17 is_stmt 1    // /mnt/disk/jenkins/ci/workspace/chipset_10.x_patch/opensource/component_code/vendor/huawei/extra/build/build_script/kirin_kernel_release/kernel/drivers/scsi/ufs/ufs_vendor_mode.c:139:17
	ldr	x0, [x20, #88]
	.loc	124 139 4 is_stmt 0     // /mnt/disk/jenkins/ci/workspace/chipset_10.x_patch/opensource/component_code/vendor/huawei/extra/build/build_script/kirin_kernel_release/kernel/drivers/scsi/ufs/ufs_vendor_mode.c:139:4
	adrp	x1, .L.str.11
	adrp	x2, .L__func__.ufs_ioctl_vendor_package_tick
	add	x1, x1, :lo12:.L.str.11
	add	x2, x2, :lo12:.L__func__.ufs_ioctl_vendor_package_tick
	bl	dev_err
.Ltmp123:
.LBB1_25:
	//DEBUG_VALUE: ufs_ioctl_vendor_package_tick:dev <- $x23
	//DEBUG_VALUE: ufs_ioctl_vendor_package_tick:ufs_vendor_ioctl_state_p <- $x19
	//DEBUG_VALUE: ufs_ioctl_vendor_package_tick:buffer <- $x22
	//DEBUG_VALUE: ufs_ioctl_vendor_package_tick:hba <- $x20
	.loc	124 0 0                 // /mnt/disk/jenkins/ci/workspace/chipset_10.x_patch/opensource/component_code/vendor/huawei/extra/build/build_script/kirin_kernel_release/kernel/drivers/scsi/ufs/ufs_vendor_mode.c:0:0
	mov	w21, wzr
.Ltmp124:
.LBB1_26:
	//DEBUG_VALUE: ufs_ioctl_vendor_package_tick:dev <- $x23
	//DEBUG_VALUE: ufs_ioctl_vendor_package_tick:ufs_vendor_ioctl_state_p <- $x19
	//DEBUG_VALUE: ufs_ioctl_vendor_package_tick:buffer <- $x22
	//DEBUG_VALUE: ufs_ioctl_vendor_package_tick:hba <- $x20
	//DEBUG_VALUE: ufs_ioctl_vendor_package_tick:err <- $w21
	.loc	124 174 29 is_stmt 1    // /mnt/disk/jenkins/ci/workspace/chipset_10.x_patch/opensource/component_code/vendor/huawei/extra/build/build_script/kirin_kernel_release/kernel/drivers/scsi/ufs/ufs_vendor_mode.c:174:29
	ldr	x0, [x20, #80]
	.loc	124 174 2 is_stmt 0     // /mnt/disk/jenkins/ci/workspace/chipset_10.x_patch/opensource/component_code/vendor/huawei/extra/build/build_script/kirin_kernel_release/kernel/drivers/scsi/ufs/ufs_vendor_mode.c:174:2
	bl	scsi_unblock_requests
	.loc	124 175 2 is_stmt 1     // /mnt/disk/jenkins/ci/workspace/chipset_10.x_patch/opensource/component_code/vendor/huawei/extra/build/build_script/kirin_kernel_release/kernel/drivers/scsi/ufs/ufs_vendor_mode.c:175:2
	ldr	x0, [x20, #88]
	adrp	x1, .L.str.15
	adrp	x2, .L__func__.ufs_ioctl_vendor_package_tick
	add	x1, x1, :lo12:.L.str.15
	add	x2, x2, :lo12:.L__func__.ufs_ioctl_vendor_package_tick
	bl	_dev_info
.Ltmp125:
	.loc	124 176 32              // /mnt/disk/jenkins/ci/workspace/chipset_10.x_patch/opensource/component_code/vendor/huawei/extra/build/build_script/kirin_kernel_release/kernel/drivers/scsi/ufs/ufs_vendor_mode.c:176:32
	ldr	x0, [x19]
.Ltmp126:
	.loc	124 176 6 is_stmt 0     // /mnt/disk/jenkins/ci/workspace/chipset_10.x_patch/opensource/component_code/vendor/huawei/extra/build/build_script/kirin_kernel_release/kernel/drivers/scsi/ufs/ufs_vendor_mode.c:176:6
	cbz	x0, .LBB1_35
.Ltmp127:
// %bb.27:
	//DEBUG_VALUE: ufs_ioctl_vendor_package_tick:err <- $w21
	//DEBUG_VALUE: ufs_ioctl_vendor_package_tick:dev <- $x23
	//DEBUG_VALUE: ufs_ioctl_vendor_package_tick:ufs_vendor_ioctl_state_p <- $x19
	//DEBUG_VALUE: ufs_ioctl_vendor_package_tick:buffer <- $x22
	//DEBUG_VALUE: ufs_ioctl_vendor_package_tick:hba <- $x20
	//DEBUG_VALUE: ufs_ioctl_vendor_package_tick:index <- 0
	.loc	124 177 53 is_stmt 1    // /mnt/disk/jenkins/ci/workspace/chipset_10.x_patch/opensource/component_code/vendor/huawei/extra/build/build_script/kirin_kernel_release/kernel/drivers/scsi/ufs/ufs_vendor_mode.c:177:53
	ldr	w8, [x19, #8]
.Ltmp128:
	.loc	124 177 3 is_stmt 0     // /mnt/disk/jenkins/ci/workspace/chipset_10.x_patch/opensource/component_code/vendor/huawei/extra/build/build_script/kirin_kernel_release/kernel/drivers/scsi/ufs/ufs_vendor_mode.c:177:3
	cmp	w8, #1                  // =1
	b.lt	.LBB1_34
.Ltmp129:
// %bb.28:
	//DEBUG_VALUE: ufs_ioctl_vendor_package_tick:err <- $w21
	//DEBUG_VALUE: ufs_ioctl_vendor_package_tick:dev <- $x23
	//DEBUG_VALUE: ufs_ioctl_vendor_package_tick:ufs_vendor_ioctl_state_p <- $x19
	//DEBUG_VALUE: ufs_ioctl_vendor_package_tick:buffer <- $x22
	//DEBUG_VALUE: ufs_ioctl_vendor_package_tick:hba <- $x20
	.loc	124 0 3                 // /mnt/disk/jenkins/ci/workspace/chipset_10.x_patch/opensource/component_code/vendor/huawei/extra/build/build_script/kirin_kernel_release/kernel/drivers/scsi/ufs/ufs_vendor_mode.c:0:3
	mov	x20, xzr
.Ltmp130:
	mov	x22, xzr
.Ltmp131:
.LBB1_29:                               // =>This Inner Loop Header: Depth=1
	//DEBUG_VALUE: ufs_ioctl_vendor_package_tick:err <- $w21
	//DEBUG_VALUE: ufs_ioctl_vendor_package_tick:dev <- $x23
	//DEBUG_VALUE: ufs_ioctl_vendor_package_tick:ufs_vendor_ioctl_state_p <- $x19
	//DEBUG_VALUE: ufs_ioctl_vendor_package_tick:index <- $x22
	.loc	124 180 6 is_stmt 1     // /mnt/disk/jenkins/ci/workspace/chipset_10.x_patch/opensource/component_code/vendor/huawei/extra/build/build_script/kirin_kernel_release/kernel/drivers/scsi/ufs/ufs_vendor_mode.c:180:6
	add	x8, x0, x20
	ldr	w9, [x8, #16]
.Ltmp132:
	.loc	124 179 8               // /mnt/disk/jenkins/ci/workspace/chipset_10.x_patch/opensource/component_code/vendor/huawei/extra/build/build_script/kirin_kernel_release/kernel/drivers/scsi/ufs/ufs_vendor_mode.c:179:8
	cbz	w9, .LBB1_31
.Ltmp133:
// %bb.30:                              //   in Loop: Header=BB1_29 Depth=1
	//DEBUG_VALUE: ufs_ioctl_vendor_package_tick:index <- $x22
	//DEBUG_VALUE: ufs_ioctl_vendor_package_tick:err <- $w21
	//DEBUG_VALUE: ufs_ioctl_vendor_package_tick:dev <- $x23
	//DEBUG_VALUE: ufs_ioctl_vendor_package_tick:ufs_vendor_ioctl_state_p <- $x19
	.loc	124 182 20              // /mnt/disk/jenkins/ci/workspace/chipset_10.x_patch/opensource/component_code/vendor/huawei/extra/build/build_script/kirin_kernel_release/kernel/drivers/scsi/ufs/ufs_vendor_mode.c:182:20
	str	wzr, [x8, #16]
.Ltmp134:
	.loc	124 184 34              // /mnt/disk/jenkins/ci/workspace/chipset_10.x_patch/opensource/component_code/vendor/huawei/extra/build/build_script/kirin_kernel_release/kernel/drivers/scsi/ufs/ufs_vendor_mode.c:184:34
	ldr	x0, [x19]
.Ltmp135:
.LBB1_31:                               //   in Loop: Header=BB1_29 Depth=1
	//DEBUG_VALUE: ufs_ioctl_vendor_package_tick:index <- $x22
	//DEBUG_VALUE: ufs_ioctl_vendor_package_tick:err <- $w21
	//DEBUG_VALUE: ufs_ioctl_vendor_package_tick:dev <- $x23
	//DEBUG_VALUE: ufs_ioctl_vendor_package_tick:ufs_vendor_ioctl_state_p <- $x19
	.loc	124 184 52 is_stmt 0    // /mnt/disk/jenkins/ci/workspace/chipset_10.x_patch/opensource/component_code/vendor/huawei/extra/build/build_script/kirin_kernel_release/kernel/drivers/scsi/ufs/ufs_vendor_mode.c:184:52
	add	x8, x0, x20
	ldr	x8, [x8, #24]
.Ltmp136:
	.loc	124 184 8               // /mnt/disk/jenkins/ci/workspace/chipset_10.x_patch/opensource/component_code/vendor/huawei/extra/build/build_script/kirin_kernel_release/kernel/drivers/scsi/ufs/ufs_vendor_mode.c:184:8
	cbz	x8, .LBB1_33
.Ltmp137:
// %bb.32:                              //   in Loop: Header=BB1_29 Depth=1
	//DEBUG_VALUE: ufs_ioctl_vendor_package_tick:index <- $x22
	//DEBUG_VALUE: ufs_ioctl_vendor_package_tick:err <- $w21
	//DEBUG_VALUE: ufs_ioctl_vendor_package_tick:dev <- $x23
	//DEBUG_VALUE: ufs_ioctl_vendor_package_tick:ufs_vendor_ioctl_state_p <- $x19
	.loc	124 185 5 is_stmt 1     // /mnt/disk/jenkins/ci/workspace/chipset_10.x_patch/opensource/component_code/vendor/huawei/extra/build/build_script/kirin_kernel_release/kernel/drivers/scsi/ufs/ufs_vendor_mode.c:185:5
	mov	x0, x8
	bl	kfree
	.loc	124 188 31              // /mnt/disk/jenkins/ci/workspace/chipset_10.x_patch/opensource/component_code/vendor/huawei/extra/build/build_script/kirin_kernel_release/kernel/drivers/scsi/ufs/ufs_vendor_mode.c:188:31
	ldr	x8, [x19]
	.loc	124 189 14              // /mnt/disk/jenkins/ci/workspace/chipset_10.x_patch/opensource/component_code/vendor/huawei/extra/build/build_script/kirin_kernel_release/kernel/drivers/scsi/ufs/ufs_vendor_mode.c:189:14
	add	x8, x8, x20
	str	xzr, [x8, #24]
.Ltmp138:
	.loc	124 0 0 is_stmt 0       // /mnt/disk/jenkins/ci/workspace/chipset_10.x_patch/opensource/component_code/vendor/huawei/extra/build/build_script/kirin_kernel_release/kernel/drivers/scsi/ufs/ufs_vendor_mode.c:0:0
	ldr	x0, [x19]
.Ltmp139:
.LBB1_33:                               //   in Loop: Header=BB1_29 Depth=1
	//DEBUG_VALUE: ufs_ioctl_vendor_package_tick:index <- $x22
	//DEBUG_VALUE: ufs_ioctl_vendor_package_tick:err <- $w21
	//DEBUG_VALUE: ufs_ioctl_vendor_package_tick:dev <- $x23
	//DEBUG_VALUE: ufs_ioctl_vendor_package_tick:ufs_vendor_ioctl_state_p <- $x19
	//DEBUG_VALUE: ufs_ioctl_vendor_package_tick:index <- [DW_OP_plus_uconst 1, DW_OP_stack_value] undef
	.loc	124 177 53 is_stmt 1    // /mnt/disk/jenkins/ci/workspace/chipset_10.x_patch/opensource/component_code/vendor/huawei/extra/build/build_script/kirin_kernel_release/kernel/drivers/scsi/ufs/ufs_vendor_mode.c:177:53
	ldrsw	x8, [x19, #8]
	.loc	124 178 13              // /mnt/disk/jenkins/ci/workspace/chipset_10.x_patch/opensource/component_code/vendor/huawei/extra/build/build_script/kirin_kernel_release/kernel/drivers/scsi/ufs/ufs_vendor_mode.c:178:13
	add	x22, x22, #1            // =1
	.loc	124 177 25              // /mnt/disk/jenkins/ci/workspace/chipset_10.x_patch/opensource/component_code/vendor/huawei/extra/build/build_script/kirin_kernel_release/kernel/drivers/scsi/ufs/ufs_vendor_mode.c:177:25
	add	x20, x20, #32           // =32
.Ltmp140:
	.loc	124 177 3 is_stmt 0     // /mnt/disk/jenkins/ci/workspace/chipset_10.x_patch/opensource/component_code/vendor/huawei/extra/build/build_script/kirin_kernel_release/kernel/drivers/scsi/ufs/ufs_vendor_mode.c:177:3
	cmp	x22, x8
	b.lt	.LBB1_29
.Ltmp141:
.LBB1_34:
	//DEBUG_VALUE: ufs_ioctl_vendor_package_tick:err <- $w21
	//DEBUG_VALUE: ufs_ioctl_vendor_package_tick:dev <- $x23
	//DEBUG_VALUE: ufs_ioctl_vendor_package_tick:ufs_vendor_ioctl_state_p <- $x19
	.loc	124 192 3 is_stmt 1     // /mnt/disk/jenkins/ci/workspace/chipset_10.x_patch/opensource/component_code/vendor/huawei/extra/build/build_script/kirin_kernel_release/kernel/drivers/scsi/ufs/ufs_vendor_mode.c:192:3
	bl	kfree
	.loc	124 193 40              // /mnt/disk/jenkins/ci/workspace/chipset_10.x_patch/opensource/component_code/vendor/huawei/extra/build/build_script/kirin_kernel_release/kernel/drivers/scsi/ufs/ufs_vendor_mode.c:193:40
	str	xzr, [x19]
.Ltmp142:
.LBB1_35:
	//DEBUG_VALUE: ufs_ioctl_vendor_package_tick:err <- $w21
	//DEBUG_VALUE: ufs_ioctl_vendor_package_tick:dev <- $x23
	//DEBUG_VALUE: ufs_ioctl_vendor_package_tick:ufs_vendor_ioctl_state_p <- $x19
	.loc	124 195 38              // /mnt/disk/jenkins/ci/workspace/chipset_10.x_patch/opensource/component_code/vendor/huawei/extra/build/build_script/kirin_kernel_release/kernel/drivers/scsi/ufs/ufs_vendor_mode.c:195:38
	str	wzr, [x19, #8]
.Ltmp143:
.LBB1_36:
	//DEBUG_VALUE: ufs_ioctl_vendor_package_tick:dev <- $x23
	//DEBUG_VALUE: ufs_ioctl_vendor_package_tick:ufs_vendor_ioctl_state_p <- $x19
	//DEBUG_VALUE: ufs_ioctl_vendor_package_tick:err <- $w21
	.loc	124 198 2               // /mnt/disk/jenkins/ci/workspace/chipset_10.x_patch/opensource/component_code/vendor/huawei/extra/build/build_script/kirin_kernel_release/kernel/drivers/scsi/ufs/ufs_vendor_mode.c:198:2
	adrp	x0, s_health_info_lock
	add	x0, x0, :lo12:s_health_info_lock
	bl	mutex_unlock
.Ltmp144:
.LBB1_37:
	.loc	124 200 1               // /mnt/disk/jenkins/ci/workspace/chipset_10.x_patch/opensource/component_code/vendor/huawei/extra/build/build_script/kirin_kernel_release/kernel/drivers/scsi/ufs/ufs_vendor_mode.c:200:1
	mov	w0, w21
	ldp	x29, x30, [sp, #96]     // 16-byte Folded Reload
	ldp	x20, x19, [sp, #80]     // 16-byte Folded Reload
	ldp	x22, x21, [sp, #64]     // 16-byte Folded Reload
	ldp	x24, x23, [sp, #48]     // 16-byte Folded Reload
	ldp	x26, x25, [sp, #32]     // 16-byte Folded Reload
	ldp	x28, x27, [sp, #16]     // 16-byte Folded Reload
	add	sp, sp, #112            // =112
	ret
.LBB1_38:
.Ltmp145:
	//DEBUG_VALUE: ufs_ioctl_vendor_package_tick:buf <- $x24
	//DEBUG_VALUE: ufs_ioctl_vendor_package_tick:index <- $x27
	//DEBUG_VALUE: ufs_ioctl_vendor_package_tick:dev <- $x23
	//DEBUG_VALUE: ufs_ioctl_vendor_package_tick:ufs_vendor_ioctl_state_p <- $x19
	//DEBUG_VALUE: ufs_ioctl_vendor_package_tick:buffer <- $x22
	//DEBUG_VALUE: ufs_ioctl_vendor_package_tick:hba <- $x20
	.loc	124 0 0 is_stmt 0       // /mnt/disk/jenkins/ci/workspace/chipset_10.x_patch/opensource/component_code/vendor/huawei/extra/build/build_script/kirin_kernel_release/kernel/drivers/scsi/ufs/ufs_vendor_mode.c:0:0
	mov	w21, w0
.Ltmp146:
	//DEBUG_VALUE: ufs_ioctl_vendor_package_tick:err <- $w21
	.loc	124 156 17 is_stmt 1    // /mnt/disk/jenkins/ci/workspace/chipset_10.x_patch/opensource/component_code/vendor/huawei/extra/build/build_script/kirin_kernel_release/kernel/drivers/scsi/ufs/ufs_vendor_mode.c:156:17
	ldr	x0, [x20, #88]
	.loc	124 157 15              // /mnt/disk/jenkins/ci/workspace/chipset_10.x_patch/opensource/component_code/vendor/huawei/extra/build/build_script/kirin_kernel_release/kernel/drivers/scsi/ufs/ufs_vendor_mode.c:157:15
	ldrb	w3, [x28, x25]
	.loc	124 156 4               // /mnt/disk/jenkins/ci/workspace/chipset_10.x_patch/opensource/component_code/vendor/huawei/extra/build/build_script/kirin_kernel_release/kernel/drivers/scsi/ufs/ufs_vendor_mode.c:156:4
	adrp	x1, .L.str.13
	adrp	x2, .L__func__.ufs_ioctl_vendor_package_tick
	add	x1, x1, :lo12:.L.str.13
	add	x2, x2, :lo12:.L__func__.ufs_ioctl_vendor_package_tick
	mov	w4, w21
	bl	dev_err
	b	.LBB1_26
.Ltmp147:
.LBB1_39:
	//DEBUG_VALUE: ufs_ioctl_vendor_package_tick:index <- $x27
	//DEBUG_VALUE: ufs_ioctl_vendor_package_tick:dev <- $x23
	//DEBUG_VALUE: ufs_ioctl_vendor_package_tick:ufs_vendor_ioctl_state_p <- $x19
	//DEBUG_VALUE: ufs_ioctl_vendor_package_tick:buffer <- $x22
	//DEBUG_VALUE: ufs_ioctl_vendor_package_tick:hba <- $x20
	.loc	124 147 18              // /mnt/disk/jenkins/ci/workspace/chipset_10.x_patch/opensource/component_code/vendor/huawei/extra/build/build_script/kirin_kernel_release/kernel/drivers/scsi/ufs/ufs_vendor_mode.c:147:18
	ldr	x0, [x20, #88]
	.loc	124 147 5 is_stmt 0     // /mnt/disk/jenkins/ci/workspace/chipset_10.x_patch/opensource/component_code/vendor/huawei/extra/build/build_script/kirin_kernel_release/kernel/drivers/scsi/ufs/ufs_vendor_mode.c:147:5
	adrp	x1, .L.str.12
	add	x1, x1, :lo12:.L.str.12
	bl	dev_err
	mov	w21, #-22
.Ltmp148:
	//DEBUG_VALUE: ufs_ioctl_vendor_package_tick:err <- -22
	.loc	124 0 5                 // /mnt/disk/jenkins/ci/workspace/chipset_10.x_patch/opensource/component_code/vendor/huawei/extra/build/build_script/kirin_kernel_release/kernel/drivers/scsi/ufs/ufs_vendor_mode.c:0:5
	b	.LBB1_26
.Ltmp149:
.Lfunc_end1:
	.size	ufs_ioctl_vendor_package_tick, .Lfunc_end1-ufs_ioctl_vendor_package_tick
	.cfi_endproc
                                        // -- End function
	.hidden	s_health_info_lock      // @s_health_info_lock
	.type	s_health_info_lock,@object
	.section	.data.s_health_info_lock,"aw",@progbits
	.globl	s_health_info_lock
	.p2align	3
s_health_info_lock:
	.zero	8
	.zero	4
	.word	3735899821              // 0xdead4ead
	.word	4294967295              // 0xffffffff
	.zero	4
	.xword	-1
	.zero	4
	.zero	4
	.xword	s_health_info_lock+40
	.xword	s_health_info_lock+40
	.xword	0
	.size	s_health_info_lock, 64

	.type	.L.str,@object          // @.str
	.section	.rodata.str1.1,"aMS",@progbits,1
.L.str:
	.asciz	"%s: User buffer is NULL!\n"
	.size	.L.str, 26

	.type	.L__func__.ufs_ioctl_vendor_package,@object // @__func__.ufs_ioctl_vendor_package
.L__func__.ufs_ioctl_vendor_package:
	.asciz	"ufs_ioctl_vendor_package"
	.size	.L__func__.ufs_ioctl_vendor_package, 25

	.type	.L.str.1,@object        // @.str.1
.L.str.1:
	.asciz	"%s: ioctl vendor cmd buffering\n"
	.size	.L.str.1, 32

	.type	.L.str.2,@object        // @.str.2
.L.str.2:
	.asciz	"%s: ioctl vendor cmd over count, %d\n"
	.size	.L.str.2, 37

	.type	.L.str.3,@object        // @.str.3
.L.str.3:
	.asciz	"%s: vendor cmd mem alloc error\n"
	.size	.L.str.3, 32

	.type	.L.str.4,@object        // @.str.4
.L.str.4:
	.asciz	"%s: copy cdb error\n"
	.size	.L.str.4, 20

	.type	.L.str.5,@object        // @.str.5
.L.str.5:
	.asciz	"%s: copy data flag\n"
	.size	.L.str.5, 20

	.type	ufs_ioctl_vendor_package_tick.s_timeout,@object // @ufs_ioctl_vendor_package_tick.s_timeout
	.section	.bss.ufs_ioctl_vendor_package_tick.s_timeout,"aw",@nobits
	.p2align	3
ufs_ioctl_vendor_package_tick.s_timeout:
	.xword	0                       // 0x0
	.size	ufs_ioctl_vendor_package_tick.s_timeout, 8

	.type	.L__func__.ufs_ioctl_vendor_package_tick,@object // @__func__.ufs_ioctl_vendor_package_tick
	.section	.rodata.str1.1,"aMS",@progbits,1
.L__func__.ufs_ioctl_vendor_package_tick:
	.asciz	"ufs_ioctl_vendor_package_tick"
	.size	.L__func__.ufs_ioctl_vendor_package_tick, 30

	.type	.L.str.6,@object        // @.str.6
.L.str.6:
	.asciz	"%s: wait for half an hour and try again\n"
	.size	.L.str.6, 41

	.type	.L.str.7,@object        // @.str.7
.L.str.7:
	.asciz	"%s: send all vendor cmd\n"
	.size	.L.str.7, 25

	.type	.L.str.8,@object        // @.str.8
.L.str.8:
	.asciz	"%s: vendor package cmd not init\n"
	.size	.L.str.8, 33

	.type	.L.str.9,@object        // @.str.9
.L.str.9:
	.asciz	"%s: block the queue"
	.size	.L.str.9, 20

	.type	.L.str.10,@object       // @.str.10
.L.str.10:
	.asciz	"%s: wait for outstanding req cleard time out, ret == %d\n"
	.size	.L.str.10, 57

	.type	.L.str.11,@object       // @.str.11
.L.str.11:
	.asciz	"%s: not allow ioctl this cmd:0x%x\n"
	.size	.L.str.11, 35

	.type	.L.str.12,@object       // @.str.12
.L.str.12:
	.asciz	"data bufffer is null\n"
	.size	.L.str.12, 22

	.type	.L.str.13,@object       // @.str.13
.L.str.13:
	.asciz	"%s: send cmd[0x%x] error %d\n"
	.size	.L.str.13, 29

	.type	.L.str.14,@object       // @.str.14
.L.str.14:
	.asciz	"%s: copy to user error %d\n"
	.size	.L.str.14, 27

	.type	.L.str.15,@object       // @.str.15
.L.str.15:
	.asciz	"%s: unblock the queue"
	.size	.L.str.15, 22

	.type	.L.str.16,@object       // @.str.16
.L.str.16:
	.asciz	"Buffer overflow detected (%d < %lu)!\n"
	.size	.L.str.16, 38

	.file	140 "/mnt/disk/jenkins/ci/workspace/chipset_10.x_patch/opensource/component_code/vendor/huawei/extra/build/build_script/kirin_kernel_release/kernel/include/scsi/scsi_request.h"
	.file	141 "/mnt/disk/jenkins/ci/workspace/chipset_10.x_patch/opensource/component_code/vendor/huawei/extra/build/build_script/kirin_kernel_release/kernel/include/scsi/scsi_cmnd.h"
	.file	142 "/mnt/disk/jenkins/ci/workspace/chipset_10.x_patch/opensource/component_code/vendor/huawei/extra/build/build_script/kirin_kernel_release/kernel/drivers/scsi/ufs/ufs-hisi.h"
	.file	143 "/mnt/disk/jenkins/ci/workspace/chipset_10.x_patch/opensource/component_code/vendor/huawei/extra/build/build_script/kirin_kernel_release/kernel/include/linux/kthread.h"
	.file	144 "/mnt/disk/jenkins/ci/workspace/chipset_10.x_patch/opensource/component_code/vendor/huawei/extra/build/build_script/kirin_kernel_release/kernel/drivers/scsi/ufs/ufs_vendor_mode.h"